Certificate:
    Data:
        Version: 3 (0x2)
        Serial Number: 4098 (0x1002)
    Signature Algorithm: sha256WithRSAEncryption
        Issuer: C=FR, ST=IDF, L=Paris, O=Local NODE-OPCUA Certificate Authority, CN=NodeOPCUA-CA
        Validity
            Not Before: Apr 16 11:56:51 2018 GMT
            Not After : Apr 16 11:56:51 2019 GMT
        Subject: C=FR, O=NodeOPCUA, CN=NodeOPCUA
        Subject Public Key Info:
            Public Key Algorithm: rsaEncryption
                Public-Key: (2048 bit)
                Modulus:
                    00:ec:82:31:8c:ea:4a:0e:42:8e:bd:00:d4:39:4c:
                    0c:e8:89:25:b3:ff:20:45:37:f0:89:ce:4f:a5:67:
                    cd:58:10:07:01:c0:d5:21:77:03:ec:54:64:f4:ef:
                    40:15:b7:52:9a:69:e8:e3:6b:ca:26:f1:93:b1:64:
                    61:7c:51:e1:95:46:7d:04:cf:45:79:60:e2:36:4c:
                    89:a5:85:b5:c0:28:45:9b:06:65:e9:8e:15:c3:cc:
                    4b:13:85:99:31:19:a6:95:32:54:ae:80:04:da:f6:
                    6a:b1:79:10:73:02:99:58:60:f5:cc:cf:55:2b:02:
                    cc:bd:98:0a:bf:e4:43:98:5b:16:ec:36:2c:88:61:
                    ad:63:99:39:1c:c2:50:59:1e:db:de:b6:1e:9d:06:
                    10:1d:ea:f8:1d:f0:21:4f:07:03:fa:f3:10:85:d3:
                    31:08:cc:ba:82:03:b6:9e:76:66:a9:4c:ae:ff:33:
                    83:b4:cd:8e:be:49:36:f3:ae:5e:23:6e:cf:88:3b:
                    4e:c4:62:64:8d:7a:ba:9a:20:0c:80:8c:e9:cd:66:
                    f1:9c:a7:c4:22:fe:c0:fa:4b:a6:bd:81:ee:8f:3b:
                    d2:8f:12:dd:aa:d4:bf:a6:28:5d:61:73:9c:ca:39:
                    d4:1e:a9:fc:02:4a:47:12:61:26:28:b2:cb:b2:0f:
                    7e:53
                Exponent: 65537 (0x10001)
        X509v3 extensions:
            X509v3 Basic Constraints: critical
                CA:FALSE
            X509v3 Subject Key Identifier: 
                99:0F:03:A6:7F:E6:FD:B5:51:29:3E:FB:1A:0D:A2:33:9B:1A:5C:3B
            X509v3 Authority Key Identifier: 
                keyid:26:EE:F6:D7:C5:CE:54:CB:48:A9:8A:11:E5:93:A4:5C:4E:60:D8:BA
                DirName:/C=FR/ST=IDF/L=Paris/O=Local NODE-OPCUA Certificate Authority/CN=NodeOPCUA-CA
                serial:CE:FA:6D:B3:C5:70:1C:A9

            X509v3 Subject Alternative Name: 
                URI:urn:IPAWSDX02:NodeOPCUA-Client, DNS:localhost, DNS:IPAWSDX02
            Netscape Comment: 
                OpenSSL Generated Certificate
            X509v3 Key Usage: critical
                Digital Signature, Non Repudiation, Key Encipherment, Data Encipherment, Key Agreement, Certificate Sign
            X509v3 Extended Key Usage: critical
                TLS Web Server Authentication, TLS Web Client Authentication
    Signature Algorithm: sha256WithRSAEncryption
         4a:34:d2:56:e1:65:cd:3a:87:8a:29:1d:38:b5:8d:c9:1a:78:
         3c:d9:a7:59:f3:38:36:d8:12:2b:2d:a4:9f:de:97:d8:d6:20:
         20:62:e5:ee:bc:58:03:31:a5:a6:de:da:8d:d9:8b:a9:66:ea:
         24:f5:af:8d:94:06:84:f6:80:01:2e:18:8c:d9:8b:43:49:b1:
         a1:98:ae:ac:d1:e8:08:34:61:56:60:1f:98:85:71:e7:e0:ef:
         0c:80:7e:5e:e2:69:d4:2a:0a:d5:5b:4c:06:d9:18:5f:72:51:
         74:ee:af:99:08:fc:88:6f:1e:49:f9:17:46:4b:37:7c:1d:c2:
         c5:0c:30:b1:ca:b6:ad:84:fd:8c:1e:97:a3:9d:92:33:18:95:
         5f:54:2a:3f:65:62:b6:c5:a8:e4:89:b0:1d:f2:e9:f6:78:6f:
         4c:9f:88:92:9f:7a:5e:19:6d:ca:de:da:d0:e2:a9:44:c1:ba:
         3f:9f:a3:1a:ee:92:a9:dc:6e:99:fc:57:70:ec:8c:98:3d:cd:
         72:59:46:86:17:05:a4:0f:87:6b:26:dd:e9:bb:c3:6d:6b:d0:
         bb:fb:31:c1:8a:17:e0:89:c1:57:96:8e:e9:b9:c3:4f:78:7d:
         bd:61:25:e9:f1:2a:73:70:03:1b:7c:a2:cc:eb:dd:a8:ec:73:
         36:cd:aa:83
-----BEGIN CERTIFICATE-----
MIIEpDCCA4ygAwIBAgICEAIwDQYJKoZIhvcNAQELBQAwczELMAkGA1UEBhMCRlIx
DDAKBgNVBAgTA0lERjEOMAwGA1UEBxMFUGFyaXMxLzAtBgNVBAoTJkxvY2FsIE5P
REUtT1BDVUEgQ2VydGlmaWNhdGUgQXV0aG9yaXR5MRUwEwYDVQQDEwxOb2RlT1BD
VUEtQ0EwIhgPMjAxODA0MTYxMTU2NTFaGA8yMDE5MDQxNjExNTY1MVowNTELMAkG
A1UEBhMCRlIxEjAQBgNVBAoMCU5vZGVPUENVQTESMBAGA1UEAwwJTm9kZU9QQ1VB
MIIBIjANBgkqhkiG9w0BAQEFAAOCAQ8AMIIBCgKCAQEA7IIxjOpKDkKOvQDUOUwM
6Ikls/8gRTfwic5PpWfNWBAHAcDVIXcD7FRk9O9AFbdSmmno42vKJvGTsWRhfFHh
lUZ9BM9FeWDiNkyJpYW1wChFmwZl6Y4Vw8xLE4WZMRmmlTJUroAE2vZqsXkQcwKZ
WGD1zM9VKwLMvZgKv+RDmFsW7DYsiGGtY5k5HMJQWR7b3rYenQYQHer4HfAhTwcD
+vMQhdMxCMy6ggO2nnZmqUyu/zODtM2Ovkk2865eI27PiDtOxGJkjXq6miAMgIzp
zWbxnKfEIv7A+kumvYHujzvSjxLdqtS/pihdYXOcyjnUHqn8AkpHEmEmKLLLsg9+
UwIDAQABo4IBejCCAXYwDAYDVR0TAQH/BAIwADAdBgNVHQ4EFgQUmQ8Dpn/m/bVR
KT77Gg2iM5saXDswgaUGA1UdIwSBnTCBmoAUJu7218XOVMtIqYoR5ZOkXE5g2Lqh
d6R1MHMxCzAJBgNVBAYTAkZSMQwwCgYDVQQIEwNJREYxDjAMBgNVBAcTBVBhcmlz
MS8wLQYDVQQKEyZMb2NhbCBOT0RFLU9QQ1VBIENlcnRpZmljYXRlIEF1dGhvcml0
eTEVMBMGA1UEAxMMTm9kZU9QQ1VBLUNBggkAzvpts8VwHKkwPwYDVR0RBDgwNoYe
dXJuOklQQVdTRFgwMjpOb2RlT1BDVUEtQ2xpZW50gglsb2NhbGhvc3SCCUlQQVdT
RFgwMjAsBglghkgBhvhCAQ0EHxYdT3BlblNTTCBHZW5lcmF0ZWQgQ2VydGlmaWNh
dGUwDgYDVR0PAQH/BAQDAgL8MCAGA1UdJQEB/wQWMBQGCCsGAQUFBwMBBggrBgEF
BQcDAjANBgkqhkiG9w0BAQsFAAOCAQEASjTSVuFlzTqHiikdOLWNyRp4PNmnWfM4
NtgSKy2kn96X2NYgIGLl7rxYAzGlpt7ajdmLqWbqJPWvjZQGhPaAAS4YjNmLQ0mx
oZiurNHoCDRhVmAfmIVx5+DvDIB+XuJp1CoK1VtMBtkYX3JRdO6vmQj8iG8eSfkX
Rks3fB3CxQwwscq2rYT9jB6Xo52SMxiVX1QqP2VitsWo5ImwHfLp9nhvTJ+Ikp96
Xhltyt7a0OKpRMG6P5+jGu6SqdxumfxXcOyMmD3NcllGhhcFpA+Haybd6bvDbWvQ
u/sxwYoX4InBV5aO6bnDT3h9vWEl6fEqc3ADG3yizOvdqOxzNs2qgw==
-----END CERTIFICATE-----
-----BEGIN CERTIFICATE-----
MIIE3TCCA8WgAwIBAgIJAM76bbPFcBypMA0GCSqGSIb3DQEBCwUAMHMxCzAJBgNV
BAYTAkZSMQwwCgYDVQQIEwNJREYxDjAMBgNVBAcTBVBhcmlzMS8wLQYDVQQKEyZM
b2NhbCBOT0RFLU9QQ1VBIENlcnRpZmljYXRlIEF1dGhvcml0eTEVMBMGA1UEAxMM
Tm9kZU9QQ1VBLUNBMB4XDTE4MDQxNzExNTY1NVoXDTI4MDQxNDExNTY1NVowczEL
MAkGA1UEBhMCRlIxDDAKBgNVBAgTA0lERjEOMAwGA1UEBxMFUGFyaXMxLzAtBgNV
BAoTJkxvY2FsIE5PREUtT1BDVUEgQ2VydGlmaWNhdGUgQXV0aG9yaXR5MRUwEwYD
VQQDEwxOb2RlT1BDVUEtQ0EwggEiMA0GCSqGSIb3DQEBAQUAA4IBDwAwggEKAoIB
AQDHcdR6F9shB6JlNFxzfUeMekz4D+fdxE1n78T0Tb2OKVQjRaLV7JOPVKgSRIhm
7pk8/7gnUXGf8H4y9cbp96a0nUdVqmrPouWi/DcIl37wVs5TSLFwejmz9qTDpQlB
A5JRCVgyQ2pKuuA+kMvdl4/vanUlCFQkOageqi0ecgmDvDdDtPkMbDtknXUfOVs/
1PnZ0SO4m+q6AA67dbFXtvWtUo4SLz2sRrclQNpPcFb1q2FkR1/0zNjstDhiE7e/
oh3avrMIsP09XPXjZlMfqgkN/WacL5ticw7oRiR8MaYTG219cut8mfdytDHTpbq5
FD+Rz+orEBjtR3udKivhL1tBAgMBAAGjggFyMIIBbjAdBgNVHQ4EFgQUJu7218XO
VMtIqYoR5ZOkXE5g2LowgaUGA1UdIwSBnTCBmoAUJu7218XOVMtIqYoR5ZOkXE5g
2Lqhd6R1MHMxCzAJBgNVBAYTAkZSMQwwCgYDVQQIEwNJREYxDjAMBgNVBAcTBVBh
cmlzMS8wLQYDVQQKEyZMb2NhbCBOT0RFLU9QQ1VBIENlcnRpZmljYXRlIEF1dGhv
cml0eTEVMBMGA1UEAxMMTm9kZU9QQ1VBLUNBggkAzvpts8VwHKkwDAYDVR0TBAUw
AwEB/zAOBgNVHQ8BAf8EBAMCAQYwVwYJYIZIAYb4QgENBEoWSENBIENlcnRpZmlj
YXRlIGdlbmVyYXRlZCBieSBOb2RlLU9QQ1VBIENlcnRpZmljYXRlIHV0aWxpdHkg
dXNpbmcgb3BlbnNzbDAuBgNVHR8EJzAlMCOgIaAfhh1odHRwOi8vbG9jYWxob3N0
Ojg5MDAvY3JsLnBlbTANBgkqhkiG9w0BAQsFAAOCAQEAGu2gGgwrTGKBruBiUjBu
1zsa1F+QMDZoYCAlFTiDJ9WqL8XMuPND1c3cnJOv7LFLKFpxnbXPfHDPZXPaFimO
q4PziPPNRf7JQDZk5ML8NRUiojpm/n2vuPlmMN4hS77CpOM1ZLt6WcavJ2Y/QGY3
K8Qjw3jDp/O7JYN4stIbiTbdghcJdfOGtnNDRlyw2Z0WeWwzEQ0ttnSKdlYlNR3n
G2RbzSPIW7Zdn61vVPX2kZc0oFvaahPkQiilN1KHBDnH3L4BWDgteNzJj8gjlhBP
VKvUmx1JfS7JBhmFPYF3lN2d90zE7zioFyj1NPyawbZq8jx0CiHb00L+5wzfY9Nq
FQ==
-----END CERTIFICATE-----
