Certificate Request:
    Data:
        Version: 0 (0x0)
        Subject: C=FR, O=NodeOPCUA, CN=NodeOPCUA
        Subject Public Key Info:
            Public Key Algorithm: rsaEncryption
                Public-Key: (2048 bit)
                Modulus:
                    00:ec:82:31:8c:ea:4a:0e:42:8e:bd:00:d4:39:4c:
                    0c:e8:89:25:b3:ff:20:45:37:f0:89:ce:4f:a5:67:
                    cd:58:10:07:01:c0:d5:21:77:03:ec:54:64:f4:ef:
                    40:15:b7:52:9a:69:e8:e3:6b:ca:26:f1:93:b1:64:
                    61:7c:51:e1:95:46:7d:04:cf:45:79:60:e2:36:4c:
                    89:a5:85:b5:c0:28:45:9b:06:65:e9:8e:15:c3:cc:
                    4b:13:85:99:31:19:a6:95:32:54:ae:80:04:da:f6:
                    6a:b1:79:10:73:02:99:58:60:f5:cc:cf:55:2b:02:
                    cc:bd:98:0a:bf:e4:43:98:5b:16:ec:36:2c:88:61:
                    ad:63:99:39:1c:c2:50:59:1e:db:de:b6:1e:9d:06:
                    10:1d:ea:f8:1d:f0:21:4f:07:03:fa:f3:10:85:d3:
                    31:08:cc:ba:82:03:b6:9e:76:66:a9:4c:ae:ff:33:
                    83:b4:cd:8e:be:49:36:f3:ae:5e:23:6e:cf:88:3b:
                    4e:c4:62:64:8d:7a:ba:9a:20:0c:80:8c:e9:cd:66:
                    f1:9c:a7:c4:22:fe:c0:fa:4b:a6:bd:81:ee:8f:3b:
                    d2:8f:12:dd:aa:d4:bf:a6:28:5d:61:73:9c:ca:39:
                    d4:1e:a9:fc:02:4a:47:12:61:26:28:b2:cb:b2:0f:
                    7e:53
                Exponent: 65537 (0x10001)
        Attributes:
        Requested Extensions:
            X509v3 Basic Constraints: 
                CA:FALSE
            X509v3 Key Usage: critical
                Certificate Sign, CRL Sign
            X509v3 Subject Alternative Name: 
                URI:undefined
    Signature Algorithm: sha256WithRSAEncryption
         0f:86:7d:73:be:85:af:84:18:9d:02:ef:e7:ae:f1:72:cc:8c:
         74:74:14:5a:c8:d1:9a:28:83:69:07:49:7e:3a:c0:45:ac:ea:
         07:cb:16:1c:67:49:cd:4f:1d:73:4b:dd:ab:b3:49:b9:67:d8:
         7f:3f:c3:03:fc:49:d5:9a:c0:5e:0d:0c:c7:06:70:92:f9:a7:
         3a:32:5b:08:d3:21:09:d7:0c:ab:13:76:61:25:ac:41:6b:93:
         a7:55:8d:f4:f8:a3:96:d8:62:c5:43:57:e4:87:d0:67:09:2a:
         44:de:20:69:12:a1:5c:b9:74:9d:90:28:92:e8:cd:c9:57:3e:
         17:dc:74:7e:ca:00:20:89:37:54:11:c6:c0:47:ce:18:a4:0a:
         70:a1:06:f3:91:68:f3:98:d1:a2:5e:61:d8:99:f1:fb:e9:af:
         c4:cf:06:ad:00:f7:77:a4:72:14:e8:c5:ab:50:59:dd:e7:bb:
         6a:ef:ec:e4:41:87:6e:1b:86:38:97:94:a8:08:65:0e:1c:82:
         d5:a9:e9:f8:cd:f4:3b:d2:36:ed:56:c2:0d:27:aa:e3:2e:f5:
         da:d0:f3:af:39:cf:78:a8:79:54:31:b0:3b:da:04:17:00:a6:
         c9:77:da:d1:ed:43:23:d0:bb:49:d8:6a:94:42:5a:1d:ad:87:
         af:3f:07:71
-----BEGIN CERTIFICATE REQUEST-----
MIICvDCCAaQCAQAwNTELMAkGA1UEBhMCRlIxEjAQBgNVBAoMCU5vZGVPUENVQTES
MBAGA1UEAwwJTm9kZU9QQ1VBMIIBIjANBgkqhkiG9w0BAQEFAAOCAQ8AMIIBCgKC
AQEA7IIxjOpKDkKOvQDUOUwM6Ikls/8gRTfwic5PpWfNWBAHAcDVIXcD7FRk9O9A
FbdSmmno42vKJvGTsWRhfFHhlUZ9BM9FeWDiNkyJpYW1wChFmwZl6Y4Vw8xLE4WZ
MRmmlTJUroAE2vZqsXkQcwKZWGD1zM9VKwLMvZgKv+RDmFsW7DYsiGGtY5k5HMJQ
WR7b3rYenQYQHer4HfAhTwcD+vMQhdMxCMy6ggO2nnZmqUyu/zODtM2Ovkk2865e
I27PiDtOxGJkjXq6miAMgIzpzWbxnKfEIv7A+kumvYHujzvSjxLdqtS/pihdYXOc
yjnUHqn8AkpHEmEmKLLLsg9+UwIDAQABoEIwQAYJKoZIhvcNAQkOMTMwMTAJBgNV
HRMEAjAAMA4GA1UdDwEB/wQEAwIBBjAUBgNVHREEDTALhgl1bmRlZmluZWQwDQYJ
KoZIhvcNAQELBQADggEBAA+GfXO+ha+EGJ0C7+eu8XLMjHR0FFrI0Zoog2kHSX46
wEWs6gfLFhxnSc1PHXNL3auzSbln2H8/wwP8SdWawF4NDMcGcJL5pzoyWwjTIQnX
DKsTdmElrEFrk6dVjfT4o5bYYsVDV+SH0GcJKkTeIGkSoVy5dJ2QKJLozclXPhfc
dH7KACCJN1QRxsBHzhikCnChBvORaPOY0aJeYdiZ8fvpr8TPBq0A93ekchToxatQ
Wd3nu2rv7ORBh24bhjiXlKgIZQ4cgtWp6fjN9DvSNu1Wwg0nquMu9drQ8685z3io
eVQxsDvaBBcApsl32tHtQyPQu0nYapRCWh2th68/B3E=
-----END CERTIFICATE REQUEST-----
