Certificate Request:
    Data:
        Version: 0 (0x0)
        Subject: C=FR, O=NodeOPCUA, CN=NodeOPCUA
        Subject Public Key Info:
            Public Key Algorithm: rsaEncryption
                Public-Key: (3072 bit)
                Modulus:
                    00:c5:9e:b6:ca:74:4b:08:24:74:e1:a0:ac:f2:60:
                    4d:e7:42:b1:3d:cd:a0:ba:7a:06:7e:13:81:02:71:
                    24:7e:de:c7:1a:ec:1c:40:de:ee:2c:fd:a3:f0:72:
                    d0:f0:a6:76:bb:a9:eb:95:22:cd:18:89:19:d3:96:
                    c4:3a:d6:7c:2f:e5:99:0d:06:f9:3d:9d:fc:ef:e0:
                    5e:6d:e4:d6:99:83:a5:9e:0c:3e:51:a9:59:73:60:
                    d1:e3:db:20:05:ee:fa:12:20:d1:3c:9d:d9:67:a4:
                    ab:38:ca:a0:8c:8c:dd:06:81:35:0b:db:59:a6:99:
                    84:6d:7e:44:bd:7a:5f:52:ac:a7:29:a3:91:be:0d:
                    20:6f:8f:9d:10:e6:c0:a0:2a:7a:a6:76:5a:4f:d4:
                    22:ec:b9:3b:07:f3:eb:03:90:d4:9c:87:ed:69:61:
                    f3:a3:c6:17:e6:68:cb:7f:71:12:f6:4b:f2:4d:9c:
                    85:24:05:26:b7:19:63:41:3d:df:fc:34:72:4e:67:
                    fa:f1:0c:29:31:e0:f7:25:46:d0:16:13:7b:dc:c5:
                    f3:0d:3a:c2:52:8d:65:c2:51:42:8b:98:bf:c6:7a:
                    f1:f4:58:93:05:b2:e2:35:4e:22:f4:21:3c:d4:d5:
                    e8:0a:66:6a:4d:cd:fa:98:5f:2e:78:c9:5d:c7:16:
                    69:cd:3b:67:e4:6b:ec:a9:63:f4:aa:46:d2:f2:a4:
                    b2:83:c5:4c:36:e8:16:0c:66:eb:e9:bb:67:da:11:
                    4e:92:8e:62:92:3a:bb:02:0f:cd:b6:ea:d9:3a:55:
                    b2:71:1c:01:56:43:08:d7:61:3f:e6:bf:39:16:c9:
                    60:62:4a:09:34:90:ac:0a:e9:4c:6c:60:06:ab:c5:
                    ef:6e:59:fa:8e:56:de:96:d1:d8:0f:df:82:7f:66:
                    00:d3:0f:b3:7a:7e:ea:33:93:4d:63:3b:31:c7:91:
                    9b:6c:28:43:94:83:b3:a6:3e:2d:90:23:cc:dd:6d:
                    a0:c6:c1:db:36:3d:8c:d7:07:29
                Exponent: 65537 (0x10001)
        Attributes:
        Requested Extensions:
            X509v3 Basic Constraints: 
                CA:FALSE
            X509v3 Key Usage: critical
                Certificate Sign, CRL Sign
            X509v3 Subject Alternative Name: 
                URI:undefined
    Signature Algorithm: sha256WithRSAEncryption
         6f:0a:3f:d5:07:65:00:46:c3:b5:1d:60:e3:06:4e:96:cc:9b:
         e9:7d:4f:39:cb:02:a9:71:a9:d2:52:db:d2:67:38:cf:c9:69:
         2e:29:3b:1e:a7:2e:0a:3e:28:0e:94:a9:01:89:aa:63:3e:35:
         d2:c7:33:66:00:fc:86:3f:e6:0c:6f:b2:75:83:94:e2:84:cf:
         1d:d3:93:55:77:df:b0:26:c7:58:91:2e:dd:c4:0c:62:61:22:
         0a:9c:b8:88:91:c9:aa:71:4d:a6:eb:20:96:80:57:8d:2e:8e:
         34:06:e2:1a:5b:58:1f:ba:1c:04:ad:54:0e:76:81:a4:ca:6e:
         7d:cf:39:fb:13:43:9a:0b:1b:82:66:ee:16:1e:9a:90:6e:7f:
         92:44:68:82:6f:ff:93:e5:b5:9e:9a:fe:a8:15:f5:a6:54:d0:
         07:38:d9:c3:8d:88:d1:41:93:e7:61:85:3b:5b:b0:df:8d:9c:
         50:e4:ab:b5:16:f9:30:37:48:33:93:b1:33:86:f4:5d:3d:2b:
         eb:ce:13:8f:ed:06:df:b4:5b:13:6a:cc:59:58:ad:c7:8f:f1:
         19:a1:10:3c:3e:e5:04:32:49:ee:93:b4:e5:be:2f:b2:7f:59:
         96:8e:23:fc:b9:29:f6:44:d1:4c:f5:b3:1c:9a:c5:fb:e9:0d:
         43:8b:e1:2f:1e:3f:1c:14:5b:ef:65:a6:00:19:5c:ef:75:83:
         63:c9:d1:bb:37:29:d8:e2:fd:65:b3:9d:9b:e8:f7:bf:4b:37:
         0f:c5:a6:27:3d:18:b6:46:77:1a:99:50:66:19:7a:bd:ea:81:
         f7:93:ee:08:fa:ad:8b:3a:cd:36:d1:b1:02:65:de:07:42:89:
         09:5a:c6:89:4a:7b:fa:de:30:be:95:cd:e2:fe:d3:ce:9d:ea:
         fb:dd:0d:5b:1b:e6:d4:f7:df:5e:42:17:12:74:a9:ac:2f:fa:
         cd:ee:34:81:92:92:f1:b6:c9:d7:eb:34:2b:bc:14:4f:93:6f:
         fb:12:39:72:85:3e
-----BEGIN CERTIFICATE REQUEST-----
MIIDvDCCAiQCAQAwNTELMAkGA1UEBhMCRlIxEjAQBgNVBAoMCU5vZGVPUENVQTES
MBAGA1UEAwwJTm9kZU9QQ1VBMIIBojANBgkqhkiG9w0BAQEFAAOCAY8AMIIBigKC
AYEAxZ62ynRLCCR04aCs8mBN50KxPc2gunoGfhOBAnEkft7HGuwcQN7uLP2j8HLQ
8KZ2u6nrlSLNGIkZ05bEOtZ8L+WZDQb5PZ387+BebeTWmYOlngw+UalZc2DR49sg
Be76EiDRPJ3ZZ6SrOMqgjIzdBoE1C9tZppmEbX5EvXpfUqynKaORvg0gb4+dEObA
oCp6pnZaT9Qi7Lk7B/PrA5DUnIftaWHzo8YX5mjLf3ES9kvyTZyFJAUmtxljQT3f
/DRyTmf68QwpMeD3JUbQFhN73MXzDTrCUo1lwlFCi5i/xnrx9FiTBbLiNU4i9CE8
1NXoCmZqTc36mF8ueMldxxZpzTtn5GvsqWP0qkbS8qSyg8VMNugWDGbr6btn2hFO
ko5ikjq7Ag/NturZOlWycRwBVkMI12E/5r85FslgYkoJNJCsCulMbGAGq8Xvbln6
jlbeltHYD9+Cf2YA0w+zen7qM5NNYzsxx5GbbChDlIOzpj4tkCPM3W2gxsHbNj2M
1wcpAgMBAAGgQjBABgkqhkiG9w0BCQ4xMzAxMAkGA1UdEwQCMAAwDgYDVR0PAQH/
BAQDAgEGMBQGA1UdEQQNMAuGCXVuZGVmaW5lZDANBgkqhkiG9w0BAQsFAAOCAYEA
bwo/1QdlAEbDtR1g4wZOlsyb6X1POcsCqXGp0lLb0mc4z8lpLik7HqcuCj4oDpSp
AYmqYz410sczZgD8hj/mDG+ydYOU4oTPHdOTVXffsCbHWJEu3cQMYmEiCpy4iJHJ
qnFNpusgloBXjS6ONAbiGltYH7ocBK1UDnaBpMpufc85+xNDmgsbgmbuFh6akG5/
kkRogm//k+W1npr+qBX1plTQBzjZw42I0UGT52GFO1uw342cUOSrtRb5MDdIM5Ox
M4b0XT0r684Tj+0G37RbE2rMWVitx4/xGaEQPD7lBDJJ7pO05b4vsn9Zlo4j/Lkp
9kTRTPWzHJrF++kNQ4vhLx4/HBRb72WmABlc73WDY8nRuzcp2OL9ZbOdm+j3v0s3
D8WmJz0YtkZ3GplQZhl6veqB95PuCPqtizrNNtGxAmXeB0KJCVrGiUp7+t4wvpXN
4v7Tzp3q+90NWxvm1PffXkIXEnSprC/6ze40gZKS8bbJ1+s0K7wUT5Nv+xI5coU+
-----END CERTIFICATE REQUEST-----
