Certificate Request:
    Data:
        Version: 0 (0x0)
        Subject: C=FR, O=NodeOPCUA, CN=NodeOPCUA
        Subject Public Key Info:
            Public Key Algorithm: rsaEncryption
                Public-Key: (4096 bit)
                Modulus:
                    00:db:86:db:7f:78:8f:4f:64:04:51:e3:33:a4:55:
                    0a:a7:0d:c1:4f:66:b5:4d:ae:08:43:4d:3a:8d:a7:
                    d0:4f:46:ec:8a:06:d9:c5:15:61:a5:06:a9:63:3d:
                    12:9c:41:70:d9:ff:61:b2:8b:0d:83:8d:83:a7:07:
                    58:eb:28:bf:bd:30:44:5e:8c:01:f1:36:aa:0e:0b:
                    93:1b:ad:7a:0c:02:a9:c1:c1:0a:61:52:94:c4:3c:
                    b0:db:a2:2d:e9:8f:6a:61:a4:e1:9b:c4:37:43:63:
                    70:27:a2:ef:c4:ee:d3:23:d5:29:4b:d6:18:5e:b8:
                    13:d2:0f:99:b6:e1:24:1b:d5:51:aa:70:5a:5b:df:
                    53:df:d5:88:3b:db:dd:2d:61:38:1f:d1:ad:3e:e6:
                    f7:15:e3:53:be:d8:53:95:cb:43:74:98:6f:9f:2f:
                    1b:2f:6d:62:31:17:4b:35:26:c7:aa:b9:79:05:46:
                    6a:5c:47:2e:36:88:23:5e:73:93:bd:fe:88:50:94:
                    9f:d2:93:98:66:40:4b:f9:c4:a4:31:61:7a:4d:13:
                    cf:07:93:0c:d0:b7:a0:60:56:b3:09:5e:4a:af:5e:
                    42:d9:28:28:66:74:6a:f9:a0:e4:d3:3e:62:5a:77:
                    4b:f6:f5:4d:e7:8e:f8:be:27:6a:50:05:62:23:76:
                    3c:63:01:9a:95:d8:f3:f6:95:aa:ff:e3:8c:89:c6:
                    c9:37:c1:07:04:64:4c:5e:d5:9b:1f:d4:c5:1c:46:
                    7c:b8:e9:c4:84:ee:9e:ec:94:c4:e3:df:9e:3d:ae:
                    81:c3:0c:d1:90:63:b2:d1:18:02:a0:a1:a5:5e:24:
                    cb:10:c2:c5:01:26:fc:55:5b:ca:f8:86:4e:e6:92:
                    61:60:c1:d4:a3:39:a3:ca:fd:ae:83:82:c7:c6:37:
                    67:85:16:d7:94:80:04:6c:d8:36:7f:a5:d9:50:e4:
                    8e:a2:51:fc:0a:de:25:4c:fc:07:cc:11:35:fa:72:
                    6d:3f:f5:80:8c:3e:f6:48:ab:b8:e7:d8:67:1d:d4:
                    c8:0c:28:84:90:e8:9b:6b:04:c3:43:9b:30:a1:fb:
                    59:11:4a:2f:9e:fc:34:05:ec:0c:6e:74:4a:83:12:
                    92:42:a6:16:e1:0f:d3:6b:a6:cc:45:82:50:9e:74:
                    c1:88:d1:e3:72:04:11:90:11:2d:19:57:c1:81:9e:
                    4e:9d:6a:da:37:54:a9:e0:f3:89:29:b7:cd:b7:03:
                    7a:cc:bf:3a:e6:e6:4c:6f:f6:c7:30:b2:08:59:1f:
                    5f:77:7e:28:41:04:c1:3f:0c:34:e6:ea:4a:9a:bc:
                    7f:9e:97:eb:41:a2:5a:f2:9b:1b:de:e5:88:c4:85:
                    9e:61:c3
                Exponent: 65537 (0x10001)
        Attributes:
        Requested Extensions:
            X509v3 Basic Constraints: 
                CA:FALSE
            X509v3 Key Usage: critical
                Certificate Sign, CRL Sign
            X509v3 Subject Alternative Name: 
                URI:undefined
    Signature Algorithm: sha256WithRSAEncryption
         b2:a6:9c:8b:ac:5e:5e:bd:ac:d0:99:8f:d7:ab:eb:af:89:d4:
         bf:8f:ed:7d:a6:fb:2e:ca:98:d8:f3:6d:3e:dd:42:94:35:be:
         d0:af:28:cf:c0:12:2a:fd:20:3a:e3:ec:14:9a:1c:e8:88:23:
         a3:88:a0:b0:58:0f:91:6d:ed:54:98:7e:30:4f:87:e1:f0:0d:
         15:1f:1f:ce:46:85:b4:4b:3b:e1:04:50:d8:95:05:b0:9a:1d:
         36:db:d8:d4:92:d6:69:69:f3:d5:12:90:d5:fc:c9:75:fb:60:
         0f:ab:29:c1:46:d2:b9:35:54:3f:02:6a:7a:8d:55:ec:d7:55:
         95:df:33:3b:5b:d0:2a:99:87:cd:b3:ab:15:56:74:25:3c:c9:
         85:1d:a6:5c:b1:be:a0:ad:7f:47:6a:34:c3:c1:a1:0f:2c:41:
         a7:ae:25:05:bc:b3:68:bc:ce:eb:63:1f:e2:4b:98:bd:8b:26:
         81:da:12:86:75:a4:6f:c3:a6:b2:47:9a:00:33:ae:62:be:2b:
         86:c2:e8:cb:9a:b0:50:3e:ef:e3:63:51:f0:48:21:ab:db:9a:
         f5:2a:b6:b8:57:d5:17:c8:37:e3:a4:0b:e8:da:c4:2c:1b:44:
         ff:e6:64:3f:16:51:64:d7:d6:7b:3f:0a:e3:aa:84:36:01:e9:
         f0:da:e0:43:c1:c2:b6:47:30:a7:06:e6:1a:8a:60:60:e6:7b:
         71:bb:3d:ec:ea:00:e9:96:2d:f5:be:88:a0:9b:a0:5d:8b:fe:
         6b:29:ab:7d:73:c9:e4:ae:05:50:fd:2a:41:30:b8:36:96:f7:
         a1:7f:9a:d1:af:f8:ac:61:58:ff:1e:5a:10:1d:c4:3b:c2:c2:
         8f:18:9f:41:2d:bc:02:4e:89:a9:77:dc:f3:7d:85:42:56:6d:
         a3:b7:16:04:2c:a2:81:df:78:5e:9d:63:7f:67:b6:62:dc:b5:
         94:e2:69:a6:01:6b:c3:5c:d6:c2:0a:d9:c4:ee:93:18:6e:ba:
         f9:c9:e3:a9:bf:42:93:bf:4e:85:99:5c:bf:59:1d:59:2a:f2:
         9a:18:d1:b0:d3:0b:d4:0e:60:17:b8:17:77:0a:df:43:e0:ce:
         c9:06:53:b9:20:24:89:0c:04:ae:ec:7f:c1:0a:f7:b3:60:4f:
         c6:bd:40:da:da:6c:32:41:2d:8f:61:e1:64:a1:c5:d1:f3:2d:
         3b:5e:62:27:b6:f5:a9:57:6f:1d:5e:e0:83:04:45:da:3d:da:
         ce:d7:8b:48:d9:07:6e:24:25:bc:23:66:da:9d:fc:1f:4e:81:
         a8:60:6e:ff:ae:c9:72:0d:ce:7a:80:3f:21:ff:b7:67:9a:d1:
         4d:88:5e:63:13:4d:ac:1c
-----BEGIN CERTIFICATE REQUEST-----
MIIEvDCCAqQCAQAwNTELMAkGA1UEBhMCRlIxEjAQBgNVBAoMCU5vZGVPUENVQTES
MBAGA1UEAwwJTm9kZU9QQ1VBMIICIjANBgkqhkiG9w0BAQEFAAOCAg8AMIICCgKC
AgEA24bbf3iPT2QEUeMzpFUKpw3BT2a1Ta4IQ006jafQT0bsigbZxRVhpQapYz0S
nEFw2f9hsosNg42DpwdY6yi/vTBEXowB8TaqDguTG616DAKpwcEKYVKUxDyw26It
6Y9qYaThm8Q3Q2NwJ6LvxO7TI9UpS9YYXrgT0g+ZtuEkG9VRqnBaW99T39WIO9vd
LWE4H9GtPub3FeNTvthTlctDdJhvny8bL21iMRdLNSbHqrl5BUZqXEcuNogjXnOT
vf6IUJSf0pOYZkBL+cSkMWF6TRPPB5MM0LegYFazCV5Kr15C2SgoZnRq+aDk0z5i
WndL9vVN5474vidqUAViI3Y8YwGaldjz9pWq/+OMicbJN8EHBGRMXtWbH9TFHEZ8
uOnEhO6e7JTE49+ePa6BwwzRkGOy0RgCoKGlXiTLEMLFASb8VVvK+IZO5pJhYMHU
ozmjyv2ug4LHxjdnhRbXlIAEbNg2f6XZUOSOolH8Ct4lTPwHzBE1+nJtP/WAjD72
SKu459hnHdTIDCiEkOibawTDQ5swoftZEUovnvw0BewMbnRKgxKSQqYW4Q/Ta6bM
RYJQnnTBiNHjcgQRkBEtGVfBgZ5OnWraN1Sp4POJKbfNtwN6zL865uZMb/bHMLII
WR9fd34oQQTBPww05upKmrx/npfrQaJa8psb3uWIxIWeYcMCAwEAAaBCMEAGCSqG
SIb3DQEJDjEzMDEwCQYDVR0TBAIwADAOBgNVHQ8BAf8EBAMCAQYwFAYDVR0RBA0w
C4YJdW5kZWZpbmVkMA0GCSqGSIb3DQEBCwUAA4ICAQCyppyLrF5evazQmY/Xq+uv
idS/j+19pvsuypjY820+3UKUNb7QryjPwBIq/SA64+wUmhzoiCOjiKCwWA+Rbe1U
mH4wT4fh8A0VHx/ORoW0SzvhBFDYlQWwmh0229jUktZpafPVEpDV/Ml1+2APqynB
RtK5NVQ/Amp6jVXs11WV3zM7W9AqmYfNs6sVVnQlPMmFHaZcsb6grX9HajTDwaEP
LEGnriUFvLNovM7rYx/iS5i9iyaB2hKGdaRvw6ayR5oAM65iviuGwujLmrBQPu/j
Y1HwSCGr25r1Kra4V9UXyDfjpAvo2sQsG0T/5mQ/FlFk19Z7PwrjqoQ2Aenw2uBD
wcK2RzCnBuYaimBg5ntxuz3s6gDpli31voigm6Bdi/5rKat9c8nkrgVQ/SpBMLg2
lvehf5rRr/isYVj/HloQHcQ7wsKPGJ9BLbwCTompd9zzfYVCVm2jtxYELKKB33he
nWN/Z7Zi3LWU4mmmAWvDXNbCCtnE7pMYbrr5yeOpv0KTv06FmVy/WR1ZKvKaGNGw
0wvUDmAXuBd3Ct9D4M7JBlO5ICSJDASu7H/BCvezYE/GvUDa2mwyQS2PYeFkocXR
8y07XmIntvWpV28dXuCDBEXaPdrO14tI2QduJCW8I2banfwfToGoYG7/rslyDc56
gD8h/7dnmtFNiF5jE02sHA==
-----END CERTIFICATE REQUEST-----
