Certificate:
    Data:
        Version: 3 (0x2)
        Serial Number: 4097 (0x1001)
    Signature Algorithm: sha256WithRSAEncryption
        Issuer: O=NodeOPCUA, CN=NodeOPCUA
        Validity
            Not Before: Apr 16 11:56:51 2018 GMT
            Not After : Apr 16 11:56:51 2019 GMT
        Subject: O=NodeOPCUA, CN=NodeOPCUA
        Subject Public Key Info:
            Public Key Algorithm: rsaEncryption
                Public-Key: (1024 bit)
                Modulus:
                    00:c0:a7:bf:86:da:26:68:fa:60:55:f5:38:0c:2f:
                    e7:f8:bd:3a:94:27:81:3b:53:64:46:aa:e0:b4:29:
                    41:5c:3e:92:f2:3a:4b:ae:f9:22:dc:0b:89:19:56:
                    ec:eb:69:1b:8b:60:43:f8:c9:bc:0f:5e:68:aa:51:
                    46:b9:47:00:41:c7:da:39:e2:87:93:c5:1a:4a:32:
                    b0:4a:80:bd:d0:fb:ce:6d:6e:d4:14:52:e9:0d:f8:
                    18:80:ba:1f:24:11:53:24:a7:80:13:1d:03:fb:a7:
                    6a:5f:28:4a:cf:c2:7f:22:d2:90:d6:69:82:f9:9a:
                    53:90:b5:b3:c4:71:23:0f:1b
                Exponent: 65537 (0x10001)
        X509v3 extensions:
            X509v3 Basic Constraints: critical
                CA:FALSE
            X509v3 Subject Key Identifier: 
                40:89:A1:EE:64:B6:25:3B:82:92:AB:D8:EE:E3:25:4A:08:A2:46:E1
            X509v3 Authority Key Identifier: 
                keyid:40:89:A1:EE:64:B6:25:3B:82:92:AB:D8:EE:E3:25:4A:08:A2:46:E1
                DirName:/O=NodeOPCUA/CN=NodeOPCUA
                serial:10:01

            X509v3 Subject Alternative Name: 
                URI:urn:IPAWSDX02:NodeOPCUA-Client, DNS:localhost, DNS:IPAWSDX02
            Netscape Comment: 
                OpenSSL Generated Certificate
            X509v3 Key Usage: critical
                Digital Signature, Non Repudiation, Key Encipherment, Data Encipherment, Key Agreement, Certificate Sign
            X509v3 Extended Key Usage: critical
                TLS Web Server Authentication, TLS Web Client Authentication
    Signature Algorithm: sha256WithRSAEncryption
         25:b9:e1:77:39:4f:15:b7:25:4c:98:99:88:ba:e9:74:53:43:
         29:34:90:12:e9:aa:6e:c7:75:59:c3:0e:4e:62:76:75:81:89:
         86:7f:31:97:37:30:0c:bd:a3:e6:39:de:6e:dc:89:fc:cf:bd:
         53:95:f4:87:19:7d:78:0c:55:21:7a:d1:c9:ab:98:36:bc:f3:
         8c:f8:72:8d:71:44:b6:27:be:48:8d:00:b8:db:67:35:5a:1f:
         fb:0d:65:11:bf:75:f4:68:be:df:ae:59:51:a2:d3:1e:a2:ac:
         67:9d:dc:09:f5:79:bd:0a:b5:63:1b:6c:6a:9a:84:45:dc:0f:
         df:af
-----BEGIN CERTIFICATE-----
MIIC8jCCAlugAwIBAgICEAEwDQYJKoZIhvcNAQELBQAwKDESMBAGA1UEChMJTm9k
ZU9QQ1VBMRIwEAYDVQQDEwlOb2RlT1BDVUEwIhgPMjAxODA0MTYxMTU2NTFaGA8y
MDE5MDQxNjExNTY1MVowKDESMBAGA1UEChMJTm9kZU9QQ1VBMRIwEAYDVQQDEwlO
b2RlT1BDVUEwgZ8wDQYJKoZIhvcNAQEBBQADgY0AMIGJAoGBAMCnv4baJmj6YFX1
OAwv5/i9OpQngTtTZEaq4LQpQVw+kvI6S675ItwLiRlW7OtpG4tgQ/jJvA9eaKpR
RrlHAEHH2jnih5PFGkoysEqAvdD7zm1u1BRS6Q34GIC6HyQRUySngBMdA/unal8o
Ss/CfyLSkNZpgvmaU5C1s8RxIw8bAgMBAAGjggElMIIBITAMBgNVHRMBAf8EAjAA
MB0GA1UdDgQWBBRAiaHuZLYlO4KSq9ju4yVKCKJG4TBRBgNVHSMESjBIgBRAiaHu
ZLYlO4KSq9ju4yVKCKJG4aEspCowKDESMBAGA1UEChMJTm9kZU9QQ1VBMRIwEAYD
VQQDEwlOb2RlT1BDVUGCAhABMD8GA1UdEQQ4MDaGHnVybjpJUEFXU0RYMDI6Tm9k
ZU9QQ1VBLUNsaWVudIIJbG9jYWxob3N0gglJUEFXU0RYMDIwLAYJYIZIAYb4QgEN
BB8WHU9wZW5TU0wgR2VuZXJhdGVkIENlcnRpZmljYXRlMA4GA1UdDwEB/wQEAwIC
/DAgBgNVHSUBAf8EFjAUBggrBgEFBQcDAQYIKwYBBQUHAwIwDQYJKoZIhvcNAQEL
BQADgYEAJbnhdzlPFbclTJiZiLrpdFNDKTSQEumqbsd1WcMOTmJ2dYGJhn8xlzcw
DL2j5jnebtyJ/M+9U5X0hxl9eAxVIXrRyauYNrzzjPhyjXFEtie+SI0AuNtnNVof
+w1lEb919Gi+365ZUaLTHqKsZ53cCfV5vQq1YxtsapqERdwP368=
-----END CERTIFICATE-----
