Certificate:
    Data:
        Version: 3 (0x2)
        Serial Number: 4100 (0x1004)
    Signature Algorithm: sha256WithRSAEncryption
        Issuer: C=FR, ST=IDF, L=Paris, O=Local NODE-OPCUA Certificate Authority, CN=NodeOPCUA-CA
        Validity
            Not Before: Apr 16 11:56:51 2018 GMT
            Not After : Apr 16 11:56:51 2019 GMT
        Subject: C=FR, O=NodeOPCUA, CN=NodeOPCUA
        Subject Public Key Info:
            Public Key Algorithm: rsaEncryption
                Public-Key: (3072 bit)
                Modulus:
                    00:c5:9e:b6:ca:74:4b:08:24:74:e1:a0:ac:f2:60:
                    4d:e7:42:b1:3d:cd:a0:ba:7a:06:7e:13:81:02:71:
                    24:7e:de:c7:1a:ec:1c:40:de:ee:2c:fd:a3:f0:72:
                    d0:f0:a6:76:bb:a9:eb:95:22:cd:18:89:19:d3:96:
                    c4:3a:d6:7c:2f:e5:99:0d:06:f9:3d:9d:fc:ef:e0:
                    5e:6d:e4:d6:99:83:a5:9e:0c:3e:51:a9:59:73:60:
                    d1:e3:db:20:05:ee:fa:12:20:d1:3c:9d:d9:67:a4:
                    ab:38:ca:a0:8c:8c:dd:06:81:35:0b:db:59:a6:99:
                    84:6d:7e:44:bd:7a:5f:52:ac:a7:29:a3:91:be:0d:
                    20:6f:8f:9d:10:e6:c0:a0:2a:7a:a6:76:5a:4f:d4:
                    22:ec:b9:3b:07:f3:eb:03:90:d4:9c:87:ed:69:61:
                    f3:a3:c6:17:e6:68:cb:7f:71:12:f6:4b:f2:4d:9c:
                    85:24:05:26:b7:19:63:41:3d:df:fc:34:72:4e:67:
                    fa:f1:0c:29:31:e0:f7:25:46:d0:16:13:7b:dc:c5:
                    f3:0d:3a:c2:52:8d:65:c2:51:42:8b:98:bf:c6:7a:
                    f1:f4:58:93:05:b2:e2:35:4e:22:f4:21:3c:d4:d5:
                    e8:0a:66:6a:4d:cd:fa:98:5f:2e:78:c9:5d:c7:16:
                    69:cd:3b:67:e4:6b:ec:a9:63:f4:aa:46:d2:f2:a4:
                    b2:83:c5:4c:36:e8:16:0c:66:eb:e9:bb:67:da:11:
                    4e:92:8e:62:92:3a:bb:02:0f:cd:b6:ea:d9:3a:55:
                    b2:71:1c:01:56:43:08:d7:61:3f:e6:bf:39:16:c9:
                    60:62:4a:09:34:90:ac:0a:e9:4c:6c:60:06:ab:c5:
                    ef:6e:59:fa:8e:56:de:96:d1:d8:0f:df:82:7f:66:
                    00:d3:0f:b3:7a:7e:ea:33:93:4d:63:3b:31:c7:91:
                    9b:6c:28:43:94:83:b3:a6:3e:2d:90:23:cc:dd:6d:
                    a0:c6:c1:db:36:3d:8c:d7:07:29
                Exponent: 65537 (0x10001)
        X509v3 extensions:
            X509v3 Basic Constraints: critical
                CA:FALSE
            X509v3 Subject Key Identifier: 
                FC:E9:56:0D:EF:B1:41:EA:6F:BC:43:F1:51:A1:29:FA:8B:26:E4:8F
            X509v3 Authority Key Identifier: 
                keyid:26:EE:F6:D7:C5:CE:54:CB:48:A9:8A:11:E5:93:A4:5C:4E:60:D8:BA
                DirName:/C=FR/ST=IDF/L=Paris/O=Local NODE-OPCUA Certificate Authority/CN=NodeOPCUA-CA
                serial:CE:FA:6D:B3:C5:70:1C:A9

            X509v3 Subject Alternative Name: 
                URI:urn:IPAWSDX02:NodeOPCUA-Client, DNS:localhost, DNS:IPAWSDX02
            Netscape Comment: 
                OpenSSL Generated Certificate
            X509v3 Key Usage: critical
                Digital Signature, Non Repudiation, Key Encipherment, Data Encipherment, Key Agreement, Certificate Sign
            X509v3 Extended Key Usage: critical
                TLS Web Server Authentication, TLS Web Client Authentication
    Signature Algorithm: sha256WithRSAEncryption
         7b:fd:66:d0:e7:b5:c9:52:57:69:ff:f2:fe:fd:12:a5:8f:a0:
         2b:9e:80:b9:fd:52:c1:91:c5:47:1e:b8:79:b4:54:99:9e:96:
         46:77:0e:b6:99:b3:b3:d6:40:dc:49:84:26:84:ac:80:01:f7:
         a6:85:0b:1e:d8:11:c4:00:88:52:de:f5:c9:39:f2:01:d4:3a:
         3d:f3:dd:25:4e:4f:af:8d:29:ed:47:ca:50:d3:64:4c:6a:3f:
         be:82:f3:c4:5b:ca:f9:33:c2:69:9a:e0:aa:b0:e6:00:65:fe:
         5a:9b:e7:7f:4b:ee:80:5e:70:c6:fa:55:2d:89:0f:a7:77:88:
         d0:b2:ca:c5:d8:a7:b3:b4:fc:0d:e6:2d:f9:c0:b3:fc:86:42:
         94:76:b2:43:84:6a:23:ea:9f:b7:ea:d5:64:f2:f5:dc:5d:70:
         2c:2a:d1:59:1d:ff:fc:09:29:4f:c3:48:7c:b4:b3:2a:6a:16:
         b8:8f:09:cb:aa:a2:c3:91:4f:94:78:a2:8a:9b:2a:56:50:ec:
         e5:63:6c:54:09:78:61:d7:3d:bf:dd:4f:9b:d9:ea:31:c2:c4:
         cf:1e:cf:01:6d:ef:da:d6:5f:16:72:a2:04:d4:1f:1a:c4:93:
         62:23:88:2d:b2:96:cb:bb:d4:ec:3b:e5:7d:9f:e3:26:99:21:
         97:7e:ce:f3
-----BEGIN CERTIFICATE-----
MIIFJDCCBAygAwIBAgICEAQwDQYJKoZIhvcNAQELBQAwczELMAkGA1UEBhMCRlIx
DDAKBgNVBAgTA0lERjEOMAwGA1UEBxMFUGFyaXMxLzAtBgNVBAoTJkxvY2FsIE5P
REUtT1BDVUEgQ2VydGlmaWNhdGUgQXV0aG9yaXR5MRUwEwYDVQQDEwxOb2RlT1BD
VUEtQ0EwIhgPMjAxODA0MTYxMTU2NTFaGA8yMDE5MDQxNjExNTY1MVowNTELMAkG
A1UEBhMCRlIxEjAQBgNVBAoMCU5vZGVPUENVQTESMBAGA1UEAwwJTm9kZU9QQ1VB
MIIBojANBgkqhkiG9w0BAQEFAAOCAY8AMIIBigKCAYEAxZ62ynRLCCR04aCs8mBN
50KxPc2gunoGfhOBAnEkft7HGuwcQN7uLP2j8HLQ8KZ2u6nrlSLNGIkZ05bEOtZ8
L+WZDQb5PZ387+BebeTWmYOlngw+UalZc2DR49sgBe76EiDRPJ3ZZ6SrOMqgjIzd
BoE1C9tZppmEbX5EvXpfUqynKaORvg0gb4+dEObAoCp6pnZaT9Qi7Lk7B/PrA5DU
nIftaWHzo8YX5mjLf3ES9kvyTZyFJAUmtxljQT3f/DRyTmf68QwpMeD3JUbQFhN7
3MXzDTrCUo1lwlFCi5i/xnrx9FiTBbLiNU4i9CE81NXoCmZqTc36mF8ueMldxxZp
zTtn5GvsqWP0qkbS8qSyg8VMNugWDGbr6btn2hFOko5ikjq7Ag/NturZOlWycRwB
VkMI12E/5r85FslgYkoJNJCsCulMbGAGq8Xvbln6jlbeltHYD9+Cf2YA0w+zen7q
M5NNYzsxx5GbbChDlIOzpj4tkCPM3W2gxsHbNj2M1wcpAgMBAAGjggF6MIIBdjAM
BgNVHRMBAf8EAjAAMB0GA1UdDgQWBBT86VYN77FB6m+8Q/FRoSn6iybkjzCBpQYD
VR0jBIGdMIGagBQm7vbXxc5Uy0ipihHlk6RcTmDYuqF3pHUwczELMAkGA1UEBhMC
RlIxDDAKBgNVBAgTA0lERjEOMAwGA1UEBxMFUGFyaXMxLzAtBgNVBAoTJkxvY2Fs
IE5PREUtT1BDVUEgQ2VydGlmaWNhdGUgQXV0aG9yaXR5MRUwEwYDVQQDEwxOb2Rl
T1BDVUEtQ0GCCQDO+m2zxXAcqTA/BgNVHREEODA2hh51cm46SVBBV1NEWDAyOk5v
ZGVPUENVQS1DbGllbnSCCWxvY2FsaG9zdIIJSVBBV1NEWDAyMCwGCWCGSAGG+EIB
DQQfFh1PcGVuU1NMIEdlbmVyYXRlZCBDZXJ0aWZpY2F0ZTAOBgNVHQ8BAf8EBAMC
AvwwIAYDVR0lAQH/BBYwFAYIKwYBBQUHAwEGCCsGAQUFBwMCMA0GCSqGSIb3DQEB
CwUAA4IBAQB7/WbQ57XJUldp//L+/RKlj6ArnoC5/VLBkcVHHrh5tFSZnpZGdw62
mbOz1kDcSYQmhKyAAfemhQse2BHEAIhS3vXJOfIB1Do9890lTk+vjSntR8pQ02RM
aj++gvPEW8r5M8JpmuCqsOYAZf5am+d/S+6AXnDG+lUtiQ+nd4jQssrF2KeztPwN
5i35wLP8hkKUdrJDhGoj6p+36tVk8vXcXXAsKtFZHf/8CSlPw0h8tLMqaha4jwnL
qqLDkU+UeKKKmypWUOzlY2xUCXhh1z2/3U+b2eoxwsTPHs8Bbe/a1l8WcqIE1B8a
xJNiI4gtspbLu9TsO+V9n+MmmSGXfs7z
-----END CERTIFICATE-----
-----BEGIN CERTIFICATE-----
MIIE3TCCA8WgAwIBAgIJAM76bbPFcBypMA0GCSqGSIb3DQEBCwUAMHMxCzAJBgNV
BAYTAkZSMQwwCgYDVQQIEwNJREYxDjAMBgNVBAcTBVBhcmlzMS8wLQYDVQQKEyZM
b2NhbCBOT0RFLU9QQ1VBIENlcnRpZmljYXRlIEF1dGhvcml0eTEVMBMGA1UEAxMM
Tm9kZU9QQ1VBLUNBMB4XDTE4MDQxNzExNTY1NVoXDTI4MDQxNDExNTY1NVowczEL
MAkGA1UEBhMCRlIxDDAKBgNVBAgTA0lERjEOMAwGA1UEBxMFUGFyaXMxLzAtBgNV
BAoTJkxvY2FsIE5PREUtT1BDVUEgQ2VydGlmaWNhdGUgQXV0aG9yaXR5MRUwEwYD
VQQDEwxOb2RlT1BDVUEtQ0EwggEiMA0GCSqGSIb3DQEBAQUAA4IBDwAwggEKAoIB
AQDHcdR6F9shB6JlNFxzfUeMekz4D+fdxE1n78T0Tb2OKVQjRaLV7JOPVKgSRIhm
7pk8/7gnUXGf8H4y9cbp96a0nUdVqmrPouWi/DcIl37wVs5TSLFwejmz9qTDpQlB
A5JRCVgyQ2pKuuA+kMvdl4/vanUlCFQkOageqi0ecgmDvDdDtPkMbDtknXUfOVs/
1PnZ0SO4m+q6AA67dbFXtvWtUo4SLz2sRrclQNpPcFb1q2FkR1/0zNjstDhiE7e/
oh3avrMIsP09XPXjZlMfqgkN/WacL5ticw7oRiR8MaYTG219cut8mfdytDHTpbq5
FD+Rz+orEBjtR3udKivhL1tBAgMBAAGjggFyMIIBbjAdBgNVHQ4EFgQUJu7218XO
VMtIqYoR5ZOkXE5g2LowgaUGA1UdIwSBnTCBmoAUJu7218XOVMtIqYoR5ZOkXE5g
2Lqhd6R1MHMxCzAJBgNVBAYTAkZSMQwwCgYDVQQIEwNJREYxDjAMBgNVBAcTBVBh
cmlzMS8wLQYDVQQKEyZMb2NhbCBOT0RFLU9QQ1VBIENlcnRpZmljYXRlIEF1dGhv
cml0eTEVMBMGA1UEAxMMTm9kZU9QQ1VBLUNBggkAzvpts8VwHKkwDAYDVR0TBAUw
AwEB/zAOBgNVHQ8BAf8EBAMCAQYwVwYJYIZIAYb4QgENBEoWSENBIENlcnRpZmlj
YXRlIGdlbmVyYXRlZCBieSBOb2RlLU9QQ1VBIENlcnRpZmljYXRlIHV0aWxpdHkg
dXNpbmcgb3BlbnNzbDAuBgNVHR8EJzAlMCOgIaAfhh1odHRwOi8vbG9jYWxob3N0
Ojg5MDAvY3JsLnBlbTANBgkqhkiG9w0BAQsFAAOCAQEAGu2gGgwrTGKBruBiUjBu
1zsa1F+QMDZoYCAlFTiDJ9WqL8XMuPND1c3cnJOv7LFLKFpxnbXPfHDPZXPaFimO
q4PziPPNRf7JQDZk5ML8NRUiojpm/n2vuPlmMN4hS77CpOM1ZLt6WcavJ2Y/QGY3
K8Qjw3jDp/O7JYN4stIbiTbdghcJdfOGtnNDRlyw2Z0WeWwzEQ0ttnSKdlYlNR3n
G2RbzSPIW7Zdn61vVPX2kZc0oFvaahPkQiilN1KHBDnH3L4BWDgteNzJj8gjlhBP
VKvUmx1JfS7JBhmFPYF3lN2d90zE7zioFyj1NPyawbZq8jx0CiHb00L+5wzfY9Nq
FQ==
-----END CERTIFICATE-----
