Certificate Request:
    Data:
        Version: 0 (0x0)
        Subject: C=FR, O=NodeOPCUA, CN=NodeOPCUA
        Subject Public Key Info:
            Public Key Algorithm: rsaEncryption
                Public-Key: (1024 bit)
                Modulus:
                    00:c0:a7:bf:86:da:26:68:fa:60:55:f5:38:0c:2f:
                    e7:f8:bd:3a:94:27:81:3b:53:64:46:aa:e0:b4:29:
                    41:5c:3e:92:f2:3a:4b:ae:f9:22:dc:0b:89:19:56:
                    ec:eb:69:1b:8b:60:43:f8:c9:bc:0f:5e:68:aa:51:
                    46:b9:47:00:41:c7:da:39:e2:87:93:c5:1a:4a:32:
                    b0:4a:80:bd:d0:fb:ce:6d:6e:d4:14:52:e9:0d:f8:
                    18:80:ba:1f:24:11:53:24:a7:80:13:1d:03:fb:a7:
                    6a:5f:28:4a:cf:c2:7f:22:d2:90:d6:69:82:f9:9a:
                    53:90:b5:b3:c4:71:23:0f:1b
                Exponent: 65537 (0x10001)
        Attributes:
        Requested Extensions:
            X509v3 Basic Constraints: 
                CA:FALSE
            X509v3 Key Usage: critical
                Certificate Sign, CRL Sign
            X509v3 Subject Alternative Name: 
                URI:undefined
    Signature Algorithm: sha256WithRSAEncryption
         15:37:f1:b4:1e:8d:02:7b:52:15:85:5f:13:a4:53:ca:0e:2e:
         d1:36:c4:34:32:08:df:bf:fa:40:0c:22:3f:44:64:0c:9a:e8:
         97:1b:46:5c:a1:f7:ee:f7:5b:ec:41:56:59:68:2c:69:0e:72:
         7e:d6:25:c9:9d:10:87:6b:61:f5:aa:61:02:1b:cf:ef:ae:ad:
         ba:e9:1b:43:84:85:b9:54:16:99:6b:be:5f:db:fa:5b:10:1c:
         8d:28:18:74:9c:67:dd:fa:6f:44:91:c0:c2:43:40:82:e9:6e:
         21:ad:de:43:33:58:ed:50:e5:00:38:7d:d4:22:81:d8:34:f5:
         70:50
-----BEGIN CERTIFICATE REQUEST-----
MIIBtzCCASACAQAwNTELMAkGA1UEBhMCRlIxEjAQBgNVBAoMCU5vZGVPUENVQTES
MBAGA1UEAwwJTm9kZU9QQ1VBMIGfMA0GCSqGSIb3DQEBAQUAA4GNADCBiQKBgQDA
p7+G2iZo+mBV9TgML+f4vTqUJ4E7U2RGquC0KUFcPpLyOkuu+SLcC4kZVuzraRuL
YEP4ybwPXmiqUUa5RwBBx9o54oeTxRpKMrBKgL3Q+85tbtQUUukN+BiAuh8kEVMk
p4ATHQP7p2pfKErPwn8i0pDWaYL5mlOQtbPEcSMPGwIDAQABoEIwQAYJKoZIhvcN
AQkOMTMwMTAJBgNVHRMEAjAAMA4GA1UdDwEB/wQEAwIBBjAUBgNVHREEDTALhgl1
bmRlZmluZWQwDQYJKoZIhvcNAQELBQADgYEAFTfxtB6NAntSFYVfE6RTyg4u0TbE
NDII37/6QAwiP0RkDJrolxtGXKH37vdb7EFWWWgsaQ5yftYlyZ0Qh2th9aphAhvP
766tuukbQ4SFuVQWmWu+X9v6WxAcjSgYdJxn3fpvRJHAwkNAguluIa3eQzNY7VDl
ADh91CKB2DT1cFA=
-----END CERTIFICATE REQUEST-----
