Certificate:
    Data:
        Version: 3 (0x2)
        Serial Number: 4103 (0x1007)
    Signature Algorithm: sha256WithRSAEncryption
        Issuer: O=NodeOPCUA, CN=NodeOPCUA
        Validity
            Not Before: Apr 16 11:56:51 2018 GMT
            Not After : Apr 16 11:56:51 2019 GMT
        Subject: O=NodeOPCUA, CN=NodeOPCUA
        Subject Public Key Info:
            Public Key Algorithm: rsaEncryption
                Public-Key: (4096 bit)
                Modulus:
                    00:db:86:db:7f:78:8f:4f:64:04:51:e3:33:a4:55:
                    0a:a7:0d:c1:4f:66:b5:4d:ae:08:43:4d:3a:8d:a7:
                    d0:4f:46:ec:8a:06:d9:c5:15:61:a5:06:a9:63:3d:
                    12:9c:41:70:d9:ff:61:b2:8b:0d:83:8d:83:a7:07:
                    58:eb:28:bf:bd:30:44:5e:8c:01:f1:36:aa:0e:0b:
                    93:1b:ad:7a:0c:02:a9:c1:c1:0a:61:52:94:c4:3c:
                    b0:db:a2:2d:e9:8f:6a:61:a4:e1:9b:c4:37:43:63:
                    70:27:a2:ef:c4:ee:d3:23:d5:29:4b:d6:18:5e:b8:
                    13:d2:0f:99:b6:e1:24:1b:d5:51:aa:70:5a:5b:df:
                    53:df:d5:88:3b:db:dd:2d:61:38:1f:d1:ad:3e:e6:
                    f7:15:e3:53:be:d8:53:95:cb:43:74:98:6f:9f:2f:
                    1b:2f:6d:62:31:17:4b:35:26:c7:aa:b9:79:05:46:
                    6a:5c:47:2e:36:88:23:5e:73:93:bd:fe:88:50:94:
                    9f:d2:93:98:66:40:4b:f9:c4:a4:31:61:7a:4d:13:
                    cf:07:93:0c:d0:b7:a0:60:56:b3:09:5e:4a:af:5e:
                    42:d9:28:28:66:74:6a:f9:a0:e4:d3:3e:62:5a:77:
                    4b:f6:f5:4d:e7:8e:f8:be:27:6a:50:05:62:23:76:
                    3c:63:01:9a:95:d8:f3:f6:95:aa:ff:e3:8c:89:c6:
                    c9:37:c1:07:04:64:4c:5e:d5:9b:1f:d4:c5:1c:46:
                    7c:b8:e9:c4:84:ee:9e:ec:94:c4:e3:df:9e:3d:ae:
                    81:c3:0c:d1:90:63:b2:d1:18:02:a0:a1:a5:5e:24:
                    cb:10:c2:c5:01:26:fc:55:5b:ca:f8:86:4e:e6:92:
                    61:60:c1:d4:a3:39:a3:ca:fd:ae:83:82:c7:c6:37:
                    67:85:16:d7:94:80:04:6c:d8:36:7f:a5:d9:50:e4:
                    8e:a2:51:fc:0a:de:25:4c:fc:07:cc:11:35:fa:72:
                    6d:3f:f5:80:8c:3e:f6:48:ab:b8:e7:d8:67:1d:d4:
                    c8:0c:28:84:90:e8:9b:6b:04:c3:43:9b:30:a1:fb:
                    59:11:4a:2f:9e:fc:34:05:ec:0c:6e:74:4a:83:12:
                    92:42:a6:16:e1:0f:d3:6b:a6:cc:45:82:50:9e:74:
                    c1:88:d1:e3:72:04:11:90:11:2d:19:57:c1:81:9e:
                    4e:9d:6a:da:37:54:a9:e0:f3:89:29:b7:cd:b7:03:
                    7a:cc:bf:3a:e6:e6:4c:6f:f6:c7:30:b2:08:59:1f:
                    5f:77:7e:28:41:04:c1:3f:0c:34:e6:ea:4a:9a:bc:
                    7f:9e:97:eb:41:a2:5a:f2:9b:1b:de:e5:88:c4:85:
                    9e:61:c3
                Exponent: 65537 (0x10001)
        X509v3 extensions:
            X509v3 Basic Constraints: critical
                CA:FALSE
            X509v3 Subject Key Identifier: 
                6B:1B:06:58:98:BB:66:7C:12:AE:6E:B2:8F:A1:0D:11:E2:A2:24:37
            X509v3 Authority Key Identifier: 
                keyid:6B:1B:06:58:98:BB:66:7C:12:AE:6E:B2:8F:A1:0D:11:E2:A2:24:37
                DirName:/O=NodeOPCUA/CN=NodeOPCUA
                serial:10:07

            X509v3 Subject Alternative Name: 
                URI:urn:IPAWSDX02:NodeOPCUA-Client, DNS:localhost, DNS:IPAWSDX02
            Netscape Comment: 
                OpenSSL Generated Certificate
            X509v3 Key Usage: critical
                Digital Signature, Non Repudiation, Key Encipherment, Data Encipherment, Key Agreement, Certificate Sign
            X509v3 Extended Key Usage: critical
                TLS Web Server Authentication, TLS Web Client Authentication
    Signature Algorithm: sha256WithRSAEncryption
         bf:4a:72:e8:8d:4a:54:9f:08:d4:a7:55:58:c8:03:44:e0:db:
         89:e7:8f:29:d3:9d:08:b1:f9:38:74:ef:25:c8:5c:49:0d:28:
         9d:d8:52:cf:c7:de:88:4e:51:7b:d8:69:2f:6b:70:9d:a8:14:
         cc:a8:70:d4:f8:10:9e:f3:4b:2e:a9:d2:4d:c0:c9:22:30:d4:
         f2:b5:0f:5b:df:d3:58:d8:0f:49:ee:87:fd:5b:66:81:07:79:
         a1:e1:30:40:2f:25:aa:5d:c9:67:09:34:c0:67:78:b3:ed:9d:
         bc:31:33:00:16:32:8b:f3:1d:32:ea:26:db:a9:78:f4:d6:15:
         f8:2f:67:01:c2:82:df:8c:22:1e:f5:c0:24:a2:d8:13:0f:91:
         cf:2f:cf:da:3b:60:02:bb:a2:c1:25:98:dc:3c:22:15:01:14:
         c0:31:d0:46:6b:87:b5:f0:f5:28:87:78:2b:03:9f:1c:4a:22:
         ed:a4:ac:95:d8:3d:fa:c5:68:20:d9:a5:51:20:96:50:ef:7c:
         ab:f2:9e:e5:2d:55:69:e5:c7:91:26:fa:2c:c1:6f:e7:dc:d9:
         95:20:9e:dc:c1:7e:1e:21:99:65:46:ff:d5:3a:d9:09:56:8b:
         10:2a:04:98:6f:3c:28:da:14:e2:f5:84:b7:37:d2:49:29:52:
         41:41:ee:c5:df:b0:ba:60:dd:3c:5f:fb:40:b6:99:2f:00:73:
         d6:74:1d:12:d4:6b:71:97:0d:73:16:2a:16:dd:fd:dc:3f:46:
         02:8e:82:95:bd:1b:7d:0b:ec:4f:2c:f1:07:31:3a:fc:63:5c:
         af:14:83:5a:e3:dc:68:d3:3b:a0:e0:13:1f:4f:cb:63:5b:d7:
         34:20:02:ff:27:28:d8:8c:40:2b:55:66:ba:78:5f:7a:ac:e5:
         c1:63:ed:05:1e:0e:0d:25:20:50:79:a4:fe:1f:25:5e:b9:16:
         c0:fe:36:35:d2:53:7a:ad:13:c5:0a:c9:fe:89:aa:02:83:25:
         50:fd:c7:f1:6b:48:78:cc:da:6f:61:ee:02:67:49:d0:fe:64:
         9b:4f:20:6e:12:b3:53:55:e5:4b:fe:63:ba:fb:fc:17:fd:84:
         55:74:dc:22:28:8e:b0:02:4a:c0:4b:27:92:aa:c4:96:2c:6d:
         09:6b:a2:94:b2:b7:6f:3e:02:70:de:bf:a8:b6:3e:67:4c:1f:
         91:21:3a:51:67:b0:d1:9f:54:da:a5:e2:a0:d1:e9:c8:13:2c:
         c6:85:8b:17:9d:d4:79:20:72:0d:99:e4:71:fe:c1:60:e6:7c:
         db:92:87:01:d5:ef:a5:ab:55:00:e8:6d:a8:1d:e2:bc:ff:0b:
         83:48:fa:04:47:4b:7d:17
-----BEGIN CERTIFICATE-----
MIIF9zCCA9+gAwIBAgICEAcwDQYJKoZIhvcNAQELBQAwKDESMBAGA1UEChMJTm9k
ZU9QQ1VBMRIwEAYDVQQDEwlOb2RlT1BDVUEwIhgPMjAxODA0MTYxMTU2NTFaGA8y
MDE5MDQxNjExNTY1MVowKDESMBAGA1UEChMJTm9kZU9QQ1VBMRIwEAYDVQQDEwlO
b2RlT1BDVUEwggIiMA0GCSqGSIb3DQEBAQUAA4ICDwAwggIKAoICAQDbhtt/eI9P
ZARR4zOkVQqnDcFPZrVNrghDTTqNp9BPRuyKBtnFFWGlBqljPRKcQXDZ/2Gyiw2D
jYOnB1jrKL+9MERejAHxNqoOC5MbrXoMAqnBwQphUpTEPLDboi3pj2phpOGbxDdD
Y3Anou/E7tMj1SlL1hheuBPSD5m24SQb1VGqcFpb31Pf1Yg7290tYTgf0a0+5vcV
41O+2FOVy0N0mG+fLxsvbWIxF0s1JsequXkFRmpcRy42iCNec5O9/ohQlJ/Sk5hm
QEv5xKQxYXpNE88HkwzQt6BgVrMJXkqvXkLZKChmdGr5oOTTPmJad0v29U3njvi+
J2pQBWIjdjxjAZqV2PP2lar/44yJxsk3wQcEZExe1Zsf1MUcRny46cSE7p7slMTj
3549roHDDNGQY7LRGAKgoaVeJMsQwsUBJvxVW8r4hk7mkmFgwdSjOaPK/a6DgsfG
N2eFFteUgARs2DZ/pdlQ5I6iUfwK3iVM/AfMETX6cm0/9YCMPvZIq7jn2Gcd1MgM
KISQ6JtrBMNDmzCh+1kRSi+e/DQF7AxudEqDEpJCphbhD9NrpsxFglCedMGI0eNy
BBGQES0ZV8GBnk6dato3VKng84kpt823A3rMvzrm5kxv9scwsghZH193fihBBME/
DDTm6kqavH+el+tBolrymxve5YjEhZ5hwwIDAQABo4IBJTCCASEwDAYDVR0TAQH/
BAIwADAdBgNVHQ4EFgQUaxsGWJi7ZnwSrm6yj6ENEeKiJDcwUQYDVR0jBEowSIAU
axsGWJi7ZnwSrm6yj6ENEeKiJDehLKQqMCgxEjAQBgNVBAoTCU5vZGVPUENVQTES
MBAGA1UEAxMJTm9kZU9QQ1VBggIQBzA/BgNVHREEODA2hh51cm46SVBBV1NEWDAy
Ok5vZGVPUENVQS1DbGllbnSCCWxvY2FsaG9zdIIJSVBBV1NEWDAyMCwGCWCGSAGG
+EIBDQQfFh1PcGVuU1NMIEdlbmVyYXRlZCBDZXJ0aWZpY2F0ZTAOBgNVHQ8BAf8E
BAMCAvwwIAYDVR0lAQH/BBYwFAYIKwYBBQUHAwEGCCsGAQUFBwMCMA0GCSqGSIb3
DQEBCwUAA4ICAQC/SnLojUpUnwjUp1VYyANE4NuJ548p050Isfk4dO8lyFxJDSid
2FLPx96ITlF72Gkva3CdqBTMqHDU+BCe80suqdJNwMkiMNTytQ9b39NY2A9J7of9
W2aBB3mh4TBALyWqXclnCTTAZ3iz7Z28MTMAFjKL8x0y6ibbqXj01hX4L2cBwoLf
jCIe9cAkotgTD5HPL8/aO2ACu6LBJZjcPCIVARTAMdBGa4e18PUoh3grA58cSiLt
pKyV2D36xWgg2aVRIJZQ73yr8p7lLVVp5ceRJvoswW/n3NmVIJ7cwX4eIZllRv/V
OtkJVosQKgSYbzwo2hTi9YS3N9JJKVJBQe7F37C6YN08X/tAtpkvAHPWdB0S1Gtx
lw1zFioW3f3cP0YCjoKVvRt9C+xPLPEHMTr8Y1yvFINa49xo0zug4BMfT8tjW9c0
IAL/JyjYjEArVWa6eF96rOXBY+0FHg4NJSBQeaT+HyVeuRbA/jY10lN6rRPFCsn+
iaoCgyVQ/cfxa0h4zNpvYe4CZ0nQ/mSbTyBuErNTVeVL/mO6+/wX/YRVdNwiKI6w
AkrASyeSqsSWLG0Ja6KUsrdvPgJw3r+otj5nTB+RITpRZ7DRn1TapeKg0enIEyzG
hYsXndR5IHINmeRx/sFg5nzbkocB1e+lq1UA6G2oHeK8/wuDSPoER0t9Fw==
-----END CERTIFICATE-----
