Certificate:
    Data:
        Version: 3 (0x2)
        Serial Number: 4101 (0x1005)
    Signature Algorithm: sha256WithRSAEncryption
        Issuer: O=NodeOPCUA, CN=NodeOPCUA
        Validity
            Not Before: Apr 16 11:56:51 2018 GMT
            Not After : Apr 16 11:56:51 2019 GMT
        Subject: O=NodeOPCUA, CN=NodeOPCUA
        Subject Public Key Info:
            Public Key Algorithm: rsaEncryption
                Public-Key: (3072 bit)
                Modulus:
                    00:c5:9e:b6:ca:74:4b:08:24:74:e1:a0:ac:f2:60:
                    4d:e7:42:b1:3d:cd:a0:ba:7a:06:7e:13:81:02:71:
                    24:7e:de:c7:1a:ec:1c:40:de:ee:2c:fd:a3:f0:72:
                    d0:f0:a6:76:bb:a9:eb:95:22:cd:18:89:19:d3:96:
                    c4:3a:d6:7c:2f:e5:99:0d:06:f9:3d:9d:fc:ef:e0:
                    5e:6d:e4:d6:99:83:a5:9e:0c:3e:51:a9:59:73:60:
                    d1:e3:db:20:05:ee:fa:12:20:d1:3c:9d:d9:67:a4:
                    ab:38:ca:a0:8c:8c:dd:06:81:35:0b:db:59:a6:99:
                    84:6d:7e:44:bd:7a:5f:52:ac:a7:29:a3:91:be:0d:
                    20:6f:8f:9d:10:e6:c0:a0:2a:7a:a6:76:5a:4f:d4:
                    22:ec:b9:3b:07:f3:eb:03:90:d4:9c:87:ed:69:61:
                    f3:a3:c6:17:e6:68:cb:7f:71:12:f6:4b:f2:4d:9c:
                    85:24:05:26:b7:19:63:41:3d:df:fc:34:72:4e:67:
                    fa:f1:0c:29:31:e0:f7:25:46:d0:16:13:7b:dc:c5:
                    f3:0d:3a:c2:52:8d:65:c2:51:42:8b:98:bf:c6:7a:
                    f1:f4:58:93:05:b2:e2:35:4e:22:f4:21:3c:d4:d5:
                    e8:0a:66:6a:4d:cd:fa:98:5f:2e:78:c9:5d:c7:16:
                    69:cd:3b:67:e4:6b:ec:a9:63:f4:aa:46:d2:f2:a4:
                    b2:83:c5:4c:36:e8:16:0c:66:eb:e9:bb:67:da:11:
                    4e:92:8e:62:92:3a:bb:02:0f:cd:b6:ea:d9:3a:55:
                    b2:71:1c:01:56:43:08:d7:61:3f:e6:bf:39:16:c9:
                    60:62:4a:09:34:90:ac:0a:e9:4c:6c:60:06:ab:c5:
                    ef:6e:59:fa:8e:56:de:96:d1:d8:0f:df:82:7f:66:
                    00:d3:0f:b3:7a:7e:ea:33:93:4d:63:3b:31:c7:91:
                    9b:6c:28:43:94:83:b3:a6:3e:2d:90:23:cc:dd:6d:
                    a0:c6:c1:db:36:3d:8c:d7:07:29
                Exponent: 65537 (0x10001)
        X509v3 extensions:
            X509v3 Basic Constraints: critical
                CA:FALSE
            X509v3 Subject Key Identifier: 
                FC:E9:56:0D:EF:B1:41:EA:6F:BC:43:F1:51:A1:29:FA:8B:26:E4:8F
            X509v3 Authority Key Identifier: 
                keyid:FC:E9:56:0D:EF:B1:41:EA:6F:BC:43:F1:51:A1:29:FA:8B:26:E4:8F
                DirName:/O=NodeOPCUA/CN=NodeOPCUA
                serial:10:05

            X509v3 Subject Alternative Name: 
                URI:urn:IPAWSDX02:NodeOPCUA-Client, DNS:localhost, DNS:IPAWSDX02
            Netscape Comment: 
                OpenSSL Generated Certificate
            X509v3 Key Usage: critical
                Digital Signature, Non Repudiation, Key Encipherment, Data Encipherment, Key Agreement, Certificate Sign
            X509v3 Extended Key Usage: critical
                TLS Web Server Authentication, TLS Web Client Authentication
    Signature Algorithm: sha256WithRSAEncryption
         27:07:0f:cf:63:aa:85:7f:af:69:eb:06:70:13:0c:b0:f9:a3:
         52:22:2c:06:1e:be:1e:89:b7:68:6c:b7:13:84:3f:3d:b7:1b:
         cc:b8:60:78:06:9e:e8:ac:c6:b8:29:b7:2e:57:54:8f:22:cd:
         cf:87:3a:0a:d9:58:e9:79:b6:62:49:ce:c7:68:0f:64:61:f2:
         7c:2c:8c:13:02:3d:25:82:07:02:32:7e:9d:ba:d7:2c:fc:67:
         30:5e:44:87:ce:20:da:7b:7f:b5:1c:b6:50:40:ba:88:86:74:
         c8:a3:c2:9a:81:82:88:23:a6:8e:7a:fa:9b:49:56:90:39:32:
         a6:67:69:ea:12:34:30:eb:98:a6:43:2c:ce:ff:11:ce:84:ef:
         2d:43:d2:f2:6b:a2:9a:ef:f4:01:08:e3:8a:be:73:6f:a0:14:
         5e:9b:f1:d5:d7:8d:e0:8e:70:fc:a3:4e:e2:75:0c:20:37:a0:
         e7:ea:23:3e:14:12:76:73:12:09:61:03:be:47:43:6e:8b:98:
         92:63:22:0a:98:31:b9:2f:f0:5e:ef:ef:ba:f7:40:f3:12:be:
         ed:56:9a:df:69:aa:87:0b:94:07:f0:c3:b1:46:83:3b:39:10:
         34:4d:fd:0b:60:0a:5b:13:08:9d:8b:f2:33:c8:9b:ea:1f:d5:
         80:6e:76:a0:32:d3:18:88:b7:34:6f:97:80:c4:81:f7:0f:47:
         1c:43:dd:c3:ea:2d:d1:39:95:07:e1:d0:b9:09:dc:b2:3b:d2:
         48:57:29:1c:3e:45:55:d5:5e:b6:ed:4b:92:d6:e5:05:79:e7:
         ef:7f:b2:b8:d5:42:70:0a:9b:37:52:44:7b:ae:5b:9d:36:c6:
         8b:eb:33:83:89:80:bc:00:ab:f0:82:0d:58:eb:bb:87:59:59:
         3d:3f:27:8c:79:ee:98:2a:fd:8b:ca:df:4a:10:02:8b:a6:9d:
         2d:c1:6a:6e:93:fe:58:a0:92:74:f3:f1:2f:c8:4b:d5:36:1c:
         ad:11:50:f7:3d:d4
-----BEGIN CERTIFICATE-----
MIIE9zCCA1+gAwIBAgICEAUwDQYJKoZIhvcNAQELBQAwKDESMBAGA1UEChMJTm9k
ZU9QQ1VBMRIwEAYDVQQDEwlOb2RlT1BDVUEwIhgPMjAxODA0MTYxMTU2NTFaGA8y
MDE5MDQxNjExNTY1MVowKDESMBAGA1UEChMJTm9kZU9QQ1VBMRIwEAYDVQQDEwlO
b2RlT1BDVUEwggGiMA0GCSqGSIb3DQEBAQUAA4IBjwAwggGKAoIBgQDFnrbKdEsI
JHThoKzyYE3nQrE9zaC6egZ+E4ECcSR+3sca7BxA3u4s/aPwctDwpna7qeuVIs0Y
iRnTlsQ61nwv5ZkNBvk9nfzv4F5t5NaZg6WeDD5RqVlzYNHj2yAF7voSINE8ndln
pKs4yqCMjN0GgTUL21mmmYRtfkS9el9SrKcpo5G+DSBvj50Q5sCgKnqmdlpP1CLs
uTsH8+sDkNSch+1pYfOjxhfmaMt/cRL2S/JNnIUkBSa3GWNBPd/8NHJOZ/rxDCkx
4PclRtAWE3vcxfMNOsJSjWXCUUKLmL/GevH0WJMFsuI1TiL0ITzU1egKZmpNzfqY
Xy54yV3HFmnNO2fka+ypY/SqRtLypLKDxUw26BYMZuvpu2faEU6SjmKSOrsCD822
6tk6VbJxHAFWQwjXYT/mvzkWyWBiSgk0kKwK6UxsYAarxe9uWfqOVt6W0dgP34J/
ZgDTD7N6fuozk01jOzHHkZtsKEOUg7OmPi2QI8zdbaDGwds2PYzXBykCAwEAAaOC
ASUwggEhMAwGA1UdEwEB/wQCMAAwHQYDVR0OBBYEFPzpVg3vsUHqb7xD8VGhKfqL
JuSPMFEGA1UdIwRKMEiAFPzpVg3vsUHqb7xD8VGhKfqLJuSPoSykKjAoMRIwEAYD
VQQKEwlOb2RlT1BDVUExEjAQBgNVBAMTCU5vZGVPUENVQYICEAUwPwYDVR0RBDgw
NoYedXJuOklQQVdTRFgwMjpOb2RlT1BDVUEtQ2xpZW50gglsb2NhbGhvc3SCCUlQ
QVdTRFgwMjAsBglghkgBhvhCAQ0EHxYdT3BlblNTTCBHZW5lcmF0ZWQgQ2VydGlm
aWNhdGUwDgYDVR0PAQH/BAQDAgL8MCAGA1UdJQEB/wQWMBQGCCsGAQUFBwMBBggr
BgEFBQcDAjANBgkqhkiG9w0BAQsFAAOCAYEAJwcPz2OqhX+vaesGcBMMsPmjUiIs
Bh6+Hom3aGy3E4Q/PbcbzLhgeAae6KzGuCm3LldUjyLNz4c6CtlY6Xm2YknOx2gP
ZGHyfCyMEwI9JYIHAjJ+nbrXLPxnMF5Eh84g2nt/tRy2UEC6iIZ0yKPCmoGCiCOm
jnr6m0lWkDkypmdp6hI0MOuYpkMszv8RzoTvLUPS8muimu/0AQjjir5zb6AUXpvx
1deN4I5w/KNO4nUMIDeg5+ojPhQSdnMSCWEDvkdDbouYkmMiCpgxuS/wXu/vuvdA
8xK+7Vaa32mqhwuUB/DDsUaDOzkQNE39C2AKWxMInYvyM8ib6h/VgG52oDLTGIi3
NG+XgMSB9w9HHEPdw+ot0TmVB+HQuQncsjvSSFcpHD5FVdVetu1LktblBXnn73+y
uNVCcAqbN1JEe65bnTbGi+szg4mAvACr8IINWOu7h1lZPT8njHnumCr9i8rfShAC
i6adLcFqbpP+WKCSdPPxL8hL1TYcrRFQ9z3U
-----END CERTIFICATE-----
