Certificate:
    Data:
        Version: 3 (0x2)
        Serial Number: 4114 (0x1012)
    Signature Algorithm: sha256WithRSAEncryption
        Issuer: C=FR, ST=IDF, L=Paris, O=Local NODE-OPCUA Certificate Authority, CN=NodeOPCUA-CA
        Validity
            Not Before: Apr 16 11:56:51 2018 GMT
            Not After : Apr 16 11:56:51 2019 GMT
        Subject: C=FR, O=NodeOPCUA, CN=NodeOPCUA
        Subject Public Key Info:
            Public Key Algorithm: rsaEncryption
                Public-Key: (2048 bit)
                Modulus:
                    00:bb:b6:f9:f9:be:00:0a:d5:48:a1:84:e6:92:f3:
                    3b:ad:e7:75:a9:1f:b1:c2:63:4d:24:f1:80:68:3f:
                    f5:b7:8c:76:bd:57:19:8b:b2:2c:57:0c:61:5e:c7:
                    cc:74:4a:b7:cd:f3:be:60:be:9c:75:0c:25:9b:63:
                    5f:96:e0:c0:da:d7:48:42:0c:ad:5d:06:d4:18:44:
                    fe:b8:c3:73:53:aa:72:a8:94:be:31:1c:b0:61:73:
                    95:21:05:d3:c6:09:3d:10:cb:fb:19:62:d0:a0:93:
                    2f:95:88:7c:32:4b:6f:4b:11:0b:8d:8c:bc:a8:3d:
                    87:bd:e7:b6:5a:ce:ac:c7:45:42:1e:88:1b:57:0a:
                    95:89:b8:2c:49:8c:b1:f0:91:b4:b4:c9:df:ac:5c:
                    3f:27:e9:aa:00:06:a7:e3:3d:d7:7e:b1:28:f7:12:
                    b6:b4:4b:6f:3a:10:34:2f:92:b5:b3:b3:cc:3a:3c:
                    55:42:70:1c:1a:78:9b:bc:4f:89:91:10:ff:df:91:
                    72:0d:aa:c3:f3:b6:0c:3f:57:d0:75:73:05:37:94:
                    cf:5c:15:2a:21:95:4e:54:8b:ed:c1:7c:c4:54:74:
                    b3:60:97:58:f4:90:21:64:7d:f6:a5:f2:12:6f:a4:
                    a3:46:9a:1a:bb:93:73:f6:5a:a4:fb:69:8a:21:3b:
                    e2:33
                Exponent: 65537 (0x10001)
        X509v3 extensions:
            X509v3 Basic Constraints: critical
                CA:FALSE
            X509v3 Subject Key Identifier: 
                74:09:E4:86:CD:89:21:C5:AC:DC:15:B6:BF:54:5A:EF:9A:3F:5F:2D
            X509v3 Authority Key Identifier: 
                keyid:26:EE:F6:D7:C5:CE:54:CB:48:A9:8A:11:E5:93:A4:5C:4E:60:D8:BA
                DirName:/C=FR/ST=IDF/L=Paris/O=Local NODE-OPCUA Certificate Authority/CN=NodeOPCUA-CA
                serial:CE:FA:6D:B3:C5:70:1C:A9

            X509v3 Subject Alternative Name: 
                URI:urn:IPAWSDX02:NodeOPCUA-DiscoveryServer, DNS:localhost, DNS:IPAWSDX02
            Netscape Comment: 
                OpenSSL Generated Certificate
            X509v3 Key Usage: critical
                Digital Signature, Non Repudiation, Key Encipherment, Data Encipherment, Key Agreement, Certificate Sign
            X509v3 Extended Key Usage: critical
                TLS Web Server Authentication, TLS Web Client Authentication
    Signature Algorithm: sha256WithRSAEncryption
         51:c4:e0:b9:79:ca:6d:31:5d:ce:86:5c:84:70:49:82:53:35:
         2b:57:55:79:7b:25:e6:23:86:39:23:c0:b3:55:59:c2:4c:22:
         c0:e5:81:a7:24:11:40:cd:48:29:3e:4d:f9:c5:bd:35:58:e1:
         3c:11:38:84:45:3c:fb:00:88:9b:66:d2:33:95:e4:c6:53:53:
         33:86:6f:c3:af:db:d5:47:f7:4e:7e:87:59:1c:c6:07:b0:97:
         c8:14:f1:8e:4b:56:14:f3:75:d9:c8:ff:77:2d:3b:24:23:da:
         c3:37:d8:29:7f:1f:6a:2f:ce:57:4b:76:c9:73:e5:9f:a9:f7:
         28:9f:c8:eb:b3:45:27:a7:4e:ec:f2:91:a7:fc:65:e8:0b:74:
         f0:81:6b:cc:1d:9c:61:46:9c:29:c8:03:ba:89:73:f7:69:df:
         93:2e:f0:2c:c0:6e:af:40:4a:dc:14:02:72:b0:9e:ff:87:47:
         83:78:be:59:de:37:bd:0e:b7:ed:48:52:c8:5b:23:f4:cf:8c:
         e0:05:5b:38:71:96:c0:71:15:67:88:ae:4e:b5:55:35:f8:18:
         a5:27:a4:f1:fd:70:62:cd:fe:f0:5c:9a:1c:ad:71:05:64:57:
         af:c6:db:40:ea:4d:f0:bd:21:3f:a5:15:81:57:67:49:4b:1a:
         9c:2b:71:9d
-----BEGIN CERTIFICATE-----
MIIErTCCA5WgAwIBAgICEBIwDQYJKoZIhvcNAQELBQAwczELMAkGA1UEBhMCRlIx
DDAKBgNVBAgTA0lERjEOMAwGA1UEBxMFUGFyaXMxLzAtBgNVBAoTJkxvY2FsIE5P
REUtT1BDVUEgQ2VydGlmaWNhdGUgQXV0aG9yaXR5MRUwEwYDVQQDEwxOb2RlT1BD
VUEtQ0EwIhgPMjAxODA0MTYxMTU2NTFaGA8yMDE5MDQxNjExNTY1MVowNTELMAkG
A1UEBhMCRlIxEjAQBgNVBAoMCU5vZGVPUENVQTESMBAGA1UEAwwJTm9kZU9QQ1VB
MIIBIjANBgkqhkiG9w0BAQEFAAOCAQ8AMIIBCgKCAQEAu7b5+b4ACtVIoYTmkvM7
red1qR+xwmNNJPGAaD/1t4x2vVcZi7IsVwxhXsfMdEq3zfO+YL6cdQwlm2NfluDA
2tdIQgytXQbUGET+uMNzU6pyqJS+MRywYXOVIQXTxgk9EMv7GWLQoJMvlYh8Mktv
SxELjYy8qD2Hvee2Ws6sx0VCHogbVwqVibgsSYyx8JG0tMnfrFw/J+mqAAan4z3X
frEo9xK2tEtvOhA0L5K1s7PMOjxVQnAcGnibvE+JkRD/35FyDarD87YMP1fQdXMF
N5TPXBUqIZVOVIvtwXzEVHSzYJdY9JAhZH32pfISb6SjRpoau5Nz9lqk+2mKITvi
MwIDAQABo4IBgzCCAX8wDAYDVR0TAQH/BAIwADAdBgNVHQ4EFgQUdAnkhs2JIcWs
3BW2v1Ra75o/Xy0wgaUGA1UdIwSBnTCBmoAUJu7218XOVMtIqYoR5ZOkXE5g2Lqh
d6R1MHMxCzAJBgNVBAYTAkZSMQwwCgYDVQQIEwNJREYxDjAMBgNVBAcTBVBhcmlz
MS8wLQYDVQQKEyZMb2NhbCBOT0RFLU9QQ1VBIENlcnRpZmljYXRlIEF1dGhvcml0
eTEVMBMGA1UEAxMMTm9kZU9QQ1VBLUNBggkAzvpts8VwHKkwSAYDVR0RBEEwP4Yn
dXJuOklQQVdTRFgwMjpOb2RlT1BDVUEtRGlzY292ZXJ5U2VydmVygglsb2NhbGhv
c3SCCUlQQVdTRFgwMjAsBglghkgBhvhCAQ0EHxYdT3BlblNTTCBHZW5lcmF0ZWQg
Q2VydGlmaWNhdGUwDgYDVR0PAQH/BAQDAgL8MCAGA1UdJQEB/wQWMBQGCCsGAQUF
BwMBBggrBgEFBQcDAjANBgkqhkiG9w0BAQsFAAOCAQEAUcTguXnKbTFdzoZchHBJ
glM1K1dVeXsl5iOGOSPAs1VZwkwiwOWBpyQRQM1IKT5N+cW9NVjhPBE4hEU8+wCI
m2bSM5XkxlNTM4Zvw6/b1Uf3Tn6HWRzGB7CXyBTxjktWFPN12cj/dy07JCPawzfY
KX8fai/OV0t2yXPln6n3KJ/I67NFJ6dO7PKRp/xl6At08IFrzB2cYUacKcgDuolz
92nfky7wLMBur0BK3BQCcrCe/4dHg3i+Wd43vQ637UhSyFsj9M+M4AVbOHGWwHEV
Z4iuTrVVNfgYpSek8f1wYs3+8FyaHK1xBWRXr8bbQOpN8L0hP6UVgVdnSUsanCtx
nQ==
-----END CERTIFICATE-----
-----BEGIN CERTIFICATE-----
MIIE3TCCA8WgAwIBAgIJAM76bbPFcBypMA0GCSqGSIb3DQEBCwUAMHMxCzAJBgNV
BAYTAkZSMQwwCgYDVQQIEwNJREYxDjAMBgNVBAcTBVBhcmlzMS8wLQYDVQQKEyZM
b2NhbCBOT0RFLU9QQ1VBIENlcnRpZmljYXRlIEF1dGhvcml0eTEVMBMGA1UEAxMM
Tm9kZU9QQ1VBLUNBMB4XDTE4MDQxNzExNTY1NVoXDTI4MDQxNDExNTY1NVowczEL
MAkGA1UEBhMCRlIxDDAKBgNVBAgTA0lERjEOMAwGA1UEBxMFUGFyaXMxLzAtBgNV
BAoTJkxvY2FsIE5PREUtT1BDVUEgQ2VydGlmaWNhdGUgQXV0aG9yaXR5MRUwEwYD
VQQDEwxOb2RlT1BDVUEtQ0EwggEiMA0GCSqGSIb3DQEBAQUAA4IBDwAwggEKAoIB
AQDHcdR6F9shB6JlNFxzfUeMekz4D+fdxE1n78T0Tb2OKVQjRaLV7JOPVKgSRIhm
7pk8/7gnUXGf8H4y9cbp96a0nUdVqmrPouWi/DcIl37wVs5TSLFwejmz9qTDpQlB
A5JRCVgyQ2pKuuA+kMvdl4/vanUlCFQkOageqi0ecgmDvDdDtPkMbDtknXUfOVs/
1PnZ0SO4m+q6AA67dbFXtvWtUo4SLz2sRrclQNpPcFb1q2FkR1/0zNjstDhiE7e/
oh3avrMIsP09XPXjZlMfqgkN/WacL5ticw7oRiR8MaYTG219cut8mfdytDHTpbq5
FD+Rz+orEBjtR3udKivhL1tBAgMBAAGjggFyMIIBbjAdBgNVHQ4EFgQUJu7218XO
VMtIqYoR5ZOkXE5g2LowgaUGA1UdIwSBnTCBmoAUJu7218XOVMtIqYoR5ZOkXE5g
2Lqhd6R1MHMxCzAJBgNVBAYTAkZSMQwwCgYDVQQIEwNJREYxDjAMBgNVBAcTBVBh
cmlzMS8wLQYDVQQKEyZMb2NhbCBOT0RFLU9QQ1VBIENlcnRpZmljYXRlIEF1dGhv
cml0eTEVMBMGA1UEAxMMTm9kZU9QQ1VBLUNBggkAzvpts8VwHKkwDAYDVR0TBAUw
AwEB/zAOBgNVHQ8BAf8EBAMCAQYwVwYJYIZIAYb4QgENBEoWSENBIENlcnRpZmlj
YXRlIGdlbmVyYXRlZCBieSBOb2RlLU9QQ1VBIENlcnRpZmljYXRlIHV0aWxpdHkg
dXNpbmcgb3BlbnNzbDAuBgNVHR8EJzAlMCOgIaAfhh1odHRwOi8vbG9jYWxob3N0
Ojg5MDAvY3JsLnBlbTANBgkqhkiG9w0BAQsFAAOCAQEAGu2gGgwrTGKBruBiUjBu
1zsa1F+QMDZoYCAlFTiDJ9WqL8XMuPND1c3cnJOv7LFLKFpxnbXPfHDPZXPaFimO
q4PziPPNRf7JQDZk5ML8NRUiojpm/n2vuPlmMN4hS77CpOM1ZLt6WcavJ2Y/QGY3
K8Qjw3jDp/O7JYN4stIbiTbdghcJdfOGtnNDRlyw2Z0WeWwzEQ0ttnSKdlYlNR3n
G2RbzSPIW7Zdn61vVPX2kZc0oFvaahPkQiilN1KHBDnH3L4BWDgteNzJj8gjlhBP
VKvUmx1JfS7JBhmFPYF3lN2d90zE7zioFyj1NPyawbZq8jx0CiHb00L+5wzfY9Nq
FQ==
-----END CERTIFICATE-----
