Certificate Request:
    Data:
        Version: 0 (0x0)
        Subject: C=FR, O=NodeOPCUA, CN=NodeOPCUA
        Subject Public Key Info:
            Public Key Algorithm: rsaEncryption
                Public-Key: (4096 bit)
                Modulus:
                    00:d5:d3:ee:09:a6:b0:31:15:85:43:42:f1:3a:2e:
                    56:5b:04:6e:03:84:c8:13:6e:be:4f:5a:66:48:82:
                    3e:55:c9:87:da:ee:7c:cf:f1:ce:65:bb:a2:12:75:
                    e6:94:81:73:99:e6:77:25:bf:19:38:e3:1e:07:56:
                    4f:6d:45:92:a6:24:21:cc:ac:63:90:81:f7:ae:30:
                    26:92:4e:27:eb:b7:63:c6:1e:6e:d9:e4:77:74:7f:
                    a1:ce:0b:76:05:1b:d1:60:4a:0c:ee:8c:d2:26:45:
                    b0:5b:3e:4f:b6:af:10:c4:25:ae:42:97:21:17:a3:
                    90:5d:56:e0:26:d9:36:52:3b:51:c3:08:87:79:bb:
                    ef:f9:9d:4b:40:b8:7b:74:c4:87:b2:9e:a6:80:00:
                    fc:78:72:69:a1:6c:c3:c8:44:71:a0:59:65:8e:55:
                    7d:59:c4:bd:c9:45:55:d1:3f:84:91:f7:9b:6e:82:
                    02:14:d7:78:61:40:8f:7b:58:ff:b1:a4:5e:4b:47:
                    08:13:96:85:ee:e0:a5:db:30:11:16:50:f6:22:69:
                    e1:f7:fe:ff:d4:25:21:c6:ec:44:ff:0b:02:73:98:
                    a7:6c:b2:a9:d2:32:e0:ce:da:45:9d:81:d5:54:d2:
                    dc:15:d9:da:46:3d:9d:2f:1d:2d:c2:0a:56:af:ee:
                    53:a9:2c:41:24:bc:0f:4b:ef:08:8d:83:b4:73:cf:
                    c0:8b:80:a8:c2:86:d5:7a:32:71:36:2a:a3:a1:a7:
                    b0:32:06:25:68:17:82:fb:bc:cb:ee:dd:0b:f0:75:
                    a8:bb:ea:f6:ce:e1:e5:ef:c0:06:1a:b5:56:85:5f:
                    70:19:70:55:55:57:d1:2b:e4:3d:16:fb:5b:dc:c2:
                    46:55:7d:4e:47:6c:08:a2:08:ec:3b:1f:88:a5:fc:
                    26:b5:23:7b:4a:62:fa:cd:c9:61:3c:6b:7b:5c:8a:
                    3f:f9:bc:2a:28:05:29:b2:e1:75:04:e6:8d:8d:da:
                    01:ca:17:f0:f4:86:ee:5f:98:d6:ea:0e:ae:b8:4e:
                    b7:2f:63:df:48:af:d6:3b:ca:cb:fd:70:9d:9b:1c:
                    72:1f:45:bf:57:af:f0:4b:9e:62:05:0d:a4:40:4c:
                    94:3e:1f:17:f6:0b:07:6c:3e:23:a0:a1:68:c1:af:
                    39:6c:4b:37:46:8d:55:27:39:e9:03:2b:2c:33:7b:
                    99:64:c9:24:b6:d3:4e:5f:96:c8:f8:76:70:7f:a7:
                    75:a4:0e:3b:5a:bb:db:f5:a1:14:da:63:01:bb:5d:
                    9c:0e:a8:46:4d:91:a1:d4:b1:07:29:fa:88:ff:dd:
                    ca:ac:af:b1:63:5e:e6:f0:08:46:35:31:87:48:d3:
                    7b:dc:0f
                Exponent: 65537 (0x10001)
        Attributes:
        Requested Extensions:
            X509v3 Basic Constraints: 
                CA:FALSE
            X509v3 Key Usage: critical
                Certificate Sign, CRL Sign
            X509v3 Subject Alternative Name: 
                URI:undefined
    Signature Algorithm: sha256WithRSAEncryption
         86:51:20:10:5a:e2:3b:a5:f7:bc:93:08:56:f7:55:51:41:b3:
         b5:03:0b:34:68:91:e9:14:f6:ae:aa:b4:b3:b9:03:c4:10:53:
         0f:4a:30:e7:bd:68:ea:12:79:fd:d7:e6:4c:25:af:98:8e:9f:
         1d:0f:b1:69:7b:0c:86:02:6b:60:88:67:82:da:c1:e3:ab:4c:
         81:3b:0b:83:16:2d:9d:c6:96:d3:be:0d:27:42:fd:f9:9a:5d:
         9a:a5:51:95:8f:98:e7:ce:66:eb:47:10:7c:83:92:b8:b3:fb:
         4e:cb:46:1c:3a:04:be:86:d4:fd:01:44:91:30:6a:c4:05:75:
         8f:9f:27:f6:a1:49:34:d2:9e:21:8a:89:36:12:a6:3f:89:e2:
         bb:6c:64:7c:1d:08:2f:29:34:f2:e7:36:54:59:08:24:d8:43:
         6c:5c:a0:d7:00:b3:17:e1:8e:b8:b0:ef:63:64:94:8b:71:c6:
         da:9e:ec:85:47:37:51:c3:28:6e:b5:3c:54:64:62:f5:8e:06:
         2c:17:69:c6:32:a6:e7:c5:e1:2d:06:17:04:4e:cf:08:a3:2e:
         27:cb:d0:c7:0e:39:78:9c:0e:6d:16:c2:8f:f7:e2:c4:06:89:
         db:24:c3:ca:db:e3:d4:ed:f9:20:57:23:e3:39:0f:b9:eb:6c:
         5e:0c:36:50:ff:d6:d2:d1:f8:d3:51:9d:9a:3c:81:9f:df:89:
         b7:8d:24:7f:91:65:29:cf:df:64:ca:9a:42:f1:8b:f1:5b:4a:
         5f:3d:cd:8a:03:d8:ec:78:c8:9d:20:9f:94:4c:85:e2:d8:58:
         25:67:63:03:21:d0:d7:64:b7:68:b8:38:a9:b4:6e:25:27:28:
         8a:18:70:2a:88:07:a2:22:9d:75:1f:70:79:6d:99:af:ed:4c:
         a1:a9:a6:8c:e2:8e:d2:1b:b4:ee:87:11:2b:90:ec:48:5f:44:
         4e:15:24:ef:8d:99:7e:0a:28:4b:18:9d:f5:73:d5:8f:54:91:
         a6:91:5e:98:9c:df:45:da:7d:eb:e4:ea:a4:43:53:71:cf:a8:
         d9:d9:3f:42:07:88:9b:09:a1:ef:ab:6a:bb:b9:22:44:4b:d4:
         cf:9f:24:4a:f6:57:d3:a2:9d:4d:50:f8:b3:14:5a:ef:1a:d7:
         e2:ae:e5:d0:34:a9:10:49:11:7e:2f:5d:5f:94:38:95:06:11:
         59:ab:4d:0f:9b:24:50:5a:c7:08:da:84:17:2e:3f:cc:a1:02:
         22:45:f9:df:10:47:b4:a4:2e:5c:c0:08:80:17:f7:8a:1f:75:
         6b:75:43:6e:2c:ab:12:35:a0:bb:f3:12:23:fa:21:4c:00:68:
         8e:44:2a:48:5f:4c:0f:7b
-----BEGIN CERTIFICATE REQUEST-----
MIIEvDCCAqQCAQAwNTELMAkGA1UEBhMCRlIxEjAQBgNVBAoMCU5vZGVPUENVQTES
MBAGA1UEAwwJTm9kZU9QQ1VBMIICIjANBgkqhkiG9w0BAQEFAAOCAg8AMIICCgKC
AgEA1dPuCaawMRWFQ0LxOi5WWwRuA4TIE26+T1pmSII+VcmH2u58z/HOZbuiEnXm
lIFzmeZ3Jb8ZOOMeB1ZPbUWSpiQhzKxjkIH3rjAmkk4n67djxh5u2eR3dH+hzgt2
BRvRYEoM7ozSJkWwWz5Ptq8QxCWuQpchF6OQXVbgJtk2UjtRwwiHebvv+Z1LQLh7
dMSHsp6mgAD8eHJpoWzDyERxoFlljlV9WcS9yUVV0T+EkfebboICFNd4YUCPe1j/
saReS0cIE5aF7uCl2zARFlD2Imnh9/7/1CUhxuxE/wsCc5inbLKp0jLgztpFnYHV
VNLcFdnaRj2dLx0twgpWr+5TqSxBJLwPS+8IjYO0c8/Ai4CowobVejJxNiqjoaew
MgYlaBeC+7zL7t0L8HWou+r2zuHl78AGGrVWhV9wGXBVVVfRK+Q9Fvtb3MJGVX1O
R2wIogjsOx+IpfwmtSN7SmL6zclhPGt7XIo/+bwqKAUpsuF1BOaNjdoByhfw9Ibu
X5jW6g6uuE63L2PfSK/WO8rL/XCdmxxyH0W/V6/wS55iBQ2kQEyUPh8X9gsHbD4j
oKFowa85bEs3Ro1VJznpAyssM3uZZMkkttNOX5bI+HZwf6d1pA47Wrvb9aEU2mMB
u12cDqhGTZGh1LEHKfqI/93KrK+xY17m8AhGNTGHSNN73A8CAwEAAaBCMEAGCSqG
SIb3DQEJDjEzMDEwCQYDVR0TBAIwADAOBgNVHQ8BAf8EBAMCAQYwFAYDVR0RBA0w
C4YJdW5kZWZpbmVkMA0GCSqGSIb3DQEBCwUAA4ICAQCGUSAQWuI7pfe8kwhW91VR
QbO1Aws0aJHpFPauqrSzuQPEEFMPSjDnvWjqEnn91+ZMJa+Yjp8dD7FpewyGAmtg
iGeC2sHjq0yBOwuDFi2dxpbTvg0nQv35ml2apVGVj5jnzmbrRxB8g5K4s/tOy0Yc
OgS+htT9AUSRMGrEBXWPnyf2oUk00p4hiok2EqY/ieK7bGR8HQgvKTTy5zZUWQgk
2ENsXKDXALMX4Y64sO9jZJSLccbanuyFRzdRwyhutTxUZGL1jgYsF2nGMqbnxeEt
BhcETs8Ioy4ny9DHDjl4nA5tFsKP9+LEBonbJMPK2+PU7fkgVyPjOQ+562xeDDZQ
/9bS0fjTUZ2aPIGf34m3jSR/kWUpz99kyppC8YvxW0pfPc2KA9jseMidIJ+UTIXi
2FglZ2MDIdDXZLdouDiptG4lJyiKGHAqiAeiIp11H3B5bZmv7UyhqaaM4o7SG7Tu
hxErkOxIX0ROFSTvjZl+CihLGJ31c9WPVJGmkV6YnN9F2n3r5OqkQ1Nxz6jZ2T9C
B4ibCaHvq2q7uSJES9TPnyRK9lfTop1NUPizFFrvGtfiruXQNKkQSRF+L11flDiV
BhFZq00PmyRQWscI2oQXLj/MoQIiRfnfEEe0pC5cwAiAF/eKH3VrdUNuLKsSNaC7
8xIj+iFMAGiORCpIX0wPew==
-----END CERTIFICATE REQUEST-----
