Certificate:
    Data:
        Version: 3 (0x2)
        Serial Number: 4118 (0x1016)
    Signature Algorithm: sha256WithRSAEncryption
        Issuer: C=FR, ST=IDF, L=Paris, O=Local NODE-OPCUA Certificate Authority, CN=NodeOPCUA-CA
        Validity
            Not Before: Apr 16 11:56:51 2018 GMT
            Not After : Apr 16 11:56:51 2019 GMT
        Subject: C=FR, O=NodeOPCUA, CN=NodeOPCUA
        Subject Public Key Info:
            Public Key Algorithm: rsaEncryption
                Public-Key: (4096 bit)
                Modulus:
                    00:d5:d3:ee:09:a6:b0:31:15:85:43:42:f1:3a:2e:
                    56:5b:04:6e:03:84:c8:13:6e:be:4f:5a:66:48:82:
                    3e:55:c9:87:da:ee:7c:cf:f1:ce:65:bb:a2:12:75:
                    e6:94:81:73:99:e6:77:25:bf:19:38:e3:1e:07:56:
                    4f:6d:45:92:a6:24:21:cc:ac:63:90:81:f7:ae:30:
                    26:92:4e:27:eb:b7:63:c6:1e:6e:d9:e4:77:74:7f:
                    a1:ce:0b:76:05:1b:d1:60:4a:0c:ee:8c:d2:26:45:
                    b0:5b:3e:4f:b6:af:10:c4:25:ae:42:97:21:17:a3:
                    90:5d:56:e0:26:d9:36:52:3b:51:c3:08:87:79:bb:
                    ef:f9:9d:4b:40:b8:7b:74:c4:87:b2:9e:a6:80:00:
                    fc:78:72:69:a1:6c:c3:c8:44:71:a0:59:65:8e:55:
                    7d:59:c4:bd:c9:45:55:d1:3f:84:91:f7:9b:6e:82:
                    02:14:d7:78:61:40:8f:7b:58:ff:b1:a4:5e:4b:47:
                    08:13:96:85:ee:e0:a5:db:30:11:16:50:f6:22:69:
                    e1:f7:fe:ff:d4:25:21:c6:ec:44:ff:0b:02:73:98:
                    a7:6c:b2:a9:d2:32:e0:ce:da:45:9d:81:d5:54:d2:
                    dc:15:d9:da:46:3d:9d:2f:1d:2d:c2:0a:56:af:ee:
                    53:a9:2c:41:24:bc:0f:4b:ef:08:8d:83:b4:73:cf:
                    c0:8b:80:a8:c2:86:d5:7a:32:71:36:2a:a3:a1:a7:
                    b0:32:06:25:68:17:82:fb:bc:cb:ee:dd:0b:f0:75:
                    a8:bb:ea:f6:ce:e1:e5:ef:c0:06:1a:b5:56:85:5f:
                    70:19:70:55:55:57:d1:2b:e4:3d:16:fb:5b:dc:c2:
                    46:55:7d:4e:47:6c:08:a2:08:ec:3b:1f:88:a5:fc:
                    26:b5:23:7b:4a:62:fa:cd:c9:61:3c:6b:7b:5c:8a:
                    3f:f9:bc:2a:28:05:29:b2:e1:75:04:e6:8d:8d:da:
                    01:ca:17:f0:f4:86:ee:5f:98:d6:ea:0e:ae:b8:4e:
                    b7:2f:63:df:48:af:d6:3b:ca:cb:fd:70:9d:9b:1c:
                    72:1f:45:bf:57:af:f0:4b:9e:62:05:0d:a4:40:4c:
                    94:3e:1f:17:f6:0b:07:6c:3e:23:a0:a1:68:c1:af:
                    39:6c:4b:37:46:8d:55:27:39:e9:03:2b:2c:33:7b:
                    99:64:c9:24:b6:d3:4e:5f:96:c8:f8:76:70:7f:a7:
                    75:a4:0e:3b:5a:bb:db:f5:a1:14:da:63:01:bb:5d:
                    9c:0e:a8:46:4d:91:a1:d4:b1:07:29:fa:88:ff:dd:
                    ca:ac:af:b1:63:5e:e6:f0:08:46:35:31:87:48:d3:
                    7b:dc:0f
                Exponent: 65537 (0x10001)
        X509v3 extensions:
            X509v3 Basic Constraints: critical
                CA:FALSE
            X509v3 Subject Key Identifier: 
                E8:D1:04:A5:50:85:DB:DA:B1:14:EE:53:A0:E3:C1:99:2C:C6:4E:CD
            X509v3 Authority Key Identifier: 
                keyid:26:EE:F6:D7:C5:CE:54:CB:48:A9:8A:11:E5:93:A4:5C:4E:60:D8:BA
                DirName:/C=FR/ST=IDF/L=Paris/O=Local NODE-OPCUA Certificate Authority/CN=NodeOPCUA-CA
                serial:CE:FA:6D:B3:C5:70:1C:A9

            X509v3 Subject Alternative Name: 
                URI:urn:IPAWSDX02:NodeOPCUA-DiscoveryServer, DNS:localhost, DNS:IPAWSDX02
            Netscape Comment: 
                OpenSSL Generated Certificate
            X509v3 Key Usage: critical
                Digital Signature, Non Repudiation, Key Encipherment, Data Encipherment, Key Agreement, Certificate Sign
            X509v3 Extended Key Usage: critical
                TLS Web Server Authentication, TLS Web Client Authentication
    Signature Algorithm: sha256WithRSAEncryption
         43:ee:c6:1f:0e:b7:52:70:02:9d:03:22:06:6c:ac:61:ac:c2:
         e9:d9:56:21:be:25:56:d0:62:a9:2a:10:eb:99:f7:57:1f:93:
         95:43:e4:92:9c:23:e9:34:8b:6b:62:cd:e7:0c:8c:e5:b4:dd:
         25:52:ec:3b:ed:18:47:62:4a:7e:fc:63:cd:16:69:ec:3c:dd:
         08:45:af:f0:94:d1:1a:d0:42:40:00:65:8b:cf:19:d3:f6:8c:
         81:74:46:a2:27:ae:ac:29:22:35:d9:5d:0f:d4:66:d8:dd:bf:
         2d:23:99:33:fc:0e:97:91:89:f6:fe:8f:eb:66:a2:84:c0:58:
         63:03:a8:a8:05:1c:b4:52:15:ce:19:5e:d4:f3:fd:43:00:c9:
         0d:3f:3f:0c:f5:ee:6e:dd:01:70:76:7f:44:45:48:5b:00:7f:
         84:5b:ff:29:6f:35:81:29:5a:48:06:1b:25:6c:02:92:83:88:
         30:cd:e5:e7:16:ae:0c:18:1a:b5:62:e7:72:ac:22:14:11:56:
         6b:65:42:50:7b:20:5c:5b:1b:0b:29:ea:3c:fc:3a:08:0d:e3:
         96:9d:34:b2:b2:a4:b1:df:8c:1d:18:43:a9:db:91:83:7d:27:
         0b:7b:2b:fc:b7:33:c1:1d:05:12:d2:11:1d:b5:cd:96:b4:ca:
         2f:47:47:7d
-----BEGIN CERTIFICATE-----
MIIFrTCCBJWgAwIBAgICEBYwDQYJKoZIhvcNAQELBQAwczELMAkGA1UEBhMCRlIx
DDAKBgNVBAgTA0lERjEOMAwGA1UEBxMFUGFyaXMxLzAtBgNVBAoTJkxvY2FsIE5P
REUtT1BDVUEgQ2VydGlmaWNhdGUgQXV0aG9yaXR5MRUwEwYDVQQDEwxOb2RlT1BD
VUEtQ0EwIhgPMjAxODA0MTYxMTU2NTFaGA8yMDE5MDQxNjExNTY1MVowNTELMAkG
A1UEBhMCRlIxEjAQBgNVBAoMCU5vZGVPUENVQTESMBAGA1UEAwwJTm9kZU9QQ1VB
MIICIjANBgkqhkiG9w0BAQEFAAOCAg8AMIICCgKCAgEA1dPuCaawMRWFQ0LxOi5W
WwRuA4TIE26+T1pmSII+VcmH2u58z/HOZbuiEnXmlIFzmeZ3Jb8ZOOMeB1ZPbUWS
piQhzKxjkIH3rjAmkk4n67djxh5u2eR3dH+hzgt2BRvRYEoM7ozSJkWwWz5Ptq8Q
xCWuQpchF6OQXVbgJtk2UjtRwwiHebvv+Z1LQLh7dMSHsp6mgAD8eHJpoWzDyERx
oFlljlV9WcS9yUVV0T+EkfebboICFNd4YUCPe1j/saReS0cIE5aF7uCl2zARFlD2
Imnh9/7/1CUhxuxE/wsCc5inbLKp0jLgztpFnYHVVNLcFdnaRj2dLx0twgpWr+5T
qSxBJLwPS+8IjYO0c8/Ai4CowobVejJxNiqjoaewMgYlaBeC+7zL7t0L8HWou+r2
zuHl78AGGrVWhV9wGXBVVVfRK+Q9Fvtb3MJGVX1OR2wIogjsOx+IpfwmtSN7SmL6
zclhPGt7XIo/+bwqKAUpsuF1BOaNjdoByhfw9IbuX5jW6g6uuE63L2PfSK/WO8rL
/XCdmxxyH0W/V6/wS55iBQ2kQEyUPh8X9gsHbD4joKFowa85bEs3Ro1VJznpAyss
M3uZZMkkttNOX5bI+HZwf6d1pA47Wrvb9aEU2mMBu12cDqhGTZGh1LEHKfqI/93K
rK+xY17m8AhGNTGHSNN73A8CAwEAAaOCAYMwggF/MAwGA1UdEwEB/wQCMAAwHQYD
VR0OBBYEFOjRBKVQhdvasRTuU6DjwZksxk7NMIGlBgNVHSMEgZ0wgZqAFCbu9tfF
zlTLSKmKEeWTpFxOYNi6oXekdTBzMQswCQYDVQQGEwJGUjEMMAoGA1UECBMDSURG
MQ4wDAYDVQQHEwVQYXJpczEvMC0GA1UEChMmTG9jYWwgTk9ERS1PUENVQSBDZXJ0
aWZpY2F0ZSBBdXRob3JpdHkxFTATBgNVBAMTDE5vZGVPUENVQS1DQYIJAM76bbPF
cBypMEgGA1UdEQRBMD+GJ3VybjpJUEFXU0RYMDI6Tm9kZU9QQ1VBLURpc2NvdmVy
eVNlcnZlcoIJbG9jYWxob3N0gglJUEFXU0RYMDIwLAYJYIZIAYb4QgENBB8WHU9w
ZW5TU0wgR2VuZXJhdGVkIENlcnRpZmljYXRlMA4GA1UdDwEB/wQEAwIC/DAgBgNV
HSUBAf8EFjAUBggrBgEFBQcDAQYIKwYBBQUHAwIwDQYJKoZIhvcNAQELBQADggEB
AEPuxh8Ot1JwAp0DIgZsrGGswunZViG+JVbQYqkqEOuZ91cfk5VD5JKcI+k0i2ti
zecMjOW03SVS7DvtGEdiSn78Y80Waew83QhFr/CU0RrQQkAAZYvPGdP2jIF0RqIn
rqwpIjXZXQ/UZtjdvy0jmTP8DpeRifb+j+tmooTAWGMDqKgFHLRSFc4ZXtTz/UMA
yQ0/Pwz17m7dAXB2f0RFSFsAf4Rb/ylvNYEpWkgGGyVsApKDiDDN5ecWrgwYGrVi
53KsIhQRVmtlQlB7IFxbGwsp6jz8OggN45adNLKypLHfjB0YQ6nbkYN9Jwt7K/y3
M8EdBRLSER21zZa0yi9HR30=
-----END CERTIFICATE-----
-----BEGIN CERTIFICATE-----
MIIE3TCCA8WgAwIBAgIJAM76bbPFcBypMA0GCSqGSIb3DQEBCwUAMHMxCzAJBgNV
BAYTAkZSMQwwCgYDVQQIEwNJREYxDjAMBgNVBAcTBVBhcmlzMS8wLQYDVQQKEyZM
b2NhbCBOT0RFLU9QQ1VBIENlcnRpZmljYXRlIEF1dGhvcml0eTEVMBMGA1UEAxMM
Tm9kZU9QQ1VBLUNBMB4XDTE4MDQxNzExNTY1NVoXDTI4MDQxNDExNTY1NVowczEL
MAkGA1UEBhMCRlIxDDAKBgNVBAgTA0lERjEOMAwGA1UEBxMFUGFyaXMxLzAtBgNV
BAoTJkxvY2FsIE5PREUtT1BDVUEgQ2VydGlmaWNhdGUgQXV0aG9yaXR5MRUwEwYD
VQQDEwxOb2RlT1BDVUEtQ0EwggEiMA0GCSqGSIb3DQEBAQUAA4IBDwAwggEKAoIB
AQDHcdR6F9shB6JlNFxzfUeMekz4D+fdxE1n78T0Tb2OKVQjRaLV7JOPVKgSRIhm
7pk8/7gnUXGf8H4y9cbp96a0nUdVqmrPouWi/DcIl37wVs5TSLFwejmz9qTDpQlB
A5JRCVgyQ2pKuuA+kMvdl4/vanUlCFQkOageqi0ecgmDvDdDtPkMbDtknXUfOVs/
1PnZ0SO4m+q6AA67dbFXtvWtUo4SLz2sRrclQNpPcFb1q2FkR1/0zNjstDhiE7e/
oh3avrMIsP09XPXjZlMfqgkN/WacL5ticw7oRiR8MaYTG219cut8mfdytDHTpbq5
FD+Rz+orEBjtR3udKivhL1tBAgMBAAGjggFyMIIBbjAdBgNVHQ4EFgQUJu7218XO
VMtIqYoR5ZOkXE5g2LowgaUGA1UdIwSBnTCBmoAUJu7218XOVMtIqYoR5ZOkXE5g
2Lqhd6R1MHMxCzAJBgNVBAYTAkZSMQwwCgYDVQQIEwNJREYxDjAMBgNVBAcTBVBh
cmlzMS8wLQYDVQQKEyZMb2NhbCBOT0RFLU9QQ1VBIENlcnRpZmljYXRlIEF1dGhv
cml0eTEVMBMGA1UEAxMMTm9kZU9QQ1VBLUNBggkAzvpts8VwHKkwDAYDVR0TBAUw
AwEB/zAOBgNVHQ8BAf8EBAMCAQYwVwYJYIZIAYb4QgENBEoWSENBIENlcnRpZmlj
YXRlIGdlbmVyYXRlZCBieSBOb2RlLU9QQ1VBIENlcnRpZmljYXRlIHV0aWxpdHkg
dXNpbmcgb3BlbnNzbDAuBgNVHR8EJzAlMCOgIaAfhh1odHRwOi8vbG9jYWxob3N0
Ojg5MDAvY3JsLnBlbTANBgkqhkiG9w0BAQsFAAOCAQEAGu2gGgwrTGKBruBiUjBu
1zsa1F+QMDZoYCAlFTiDJ9WqL8XMuPND1c3cnJOv7LFLKFpxnbXPfHDPZXPaFimO
q4PziPPNRf7JQDZk5ML8NRUiojpm/n2vuPlmMN4hS77CpOM1ZLt6WcavJ2Y/QGY3
K8Qjw3jDp/O7JYN4stIbiTbdghcJdfOGtnNDRlyw2Z0WeWwzEQ0ttnSKdlYlNR3n
G2RbzSPIW7Zdn61vVPX2kZc0oFvaahPkQiilN1KHBDnH3L4BWDgteNzJj8gjlhBP
VKvUmx1JfS7JBhmFPYF3lN2d90zE7zioFyj1NPyawbZq8jx0CiHb00L+5wzfY9Nq
FQ==
-----END CERTIFICATE-----
