Certificate:
    Data:
        Version: 3 (0x2)
        Serial Number: 4119 (0x1017)
    Signature Algorithm: sha256WithRSAEncryption
        Issuer: O=NodeOPCUA, CN=NodeOPCUA
        Validity
            Not Before: Apr 16 11:56:51 2018 GMT
            Not After : Apr 16 11:56:51 2019 GMT
        Subject: O=NodeOPCUA, CN=NodeOPCUA
        Subject Public Key Info:
            Public Key Algorithm: rsaEncryption
                Public-Key: (4096 bit)
                Modulus:
                    00:d5:d3:ee:09:a6:b0:31:15:85:43:42:f1:3a:2e:
                    56:5b:04:6e:03:84:c8:13:6e:be:4f:5a:66:48:82:
                    3e:55:c9:87:da:ee:7c:cf:f1:ce:65:bb:a2:12:75:
                    e6:94:81:73:99:e6:77:25:bf:19:38:e3:1e:07:56:
                    4f:6d:45:92:a6:24:21:cc:ac:63:90:81:f7:ae:30:
                    26:92:4e:27:eb:b7:63:c6:1e:6e:d9:e4:77:74:7f:
                    a1:ce:0b:76:05:1b:d1:60:4a:0c:ee:8c:d2:26:45:
                    b0:5b:3e:4f:b6:af:10:c4:25:ae:42:97:21:17:a3:
                    90:5d:56:e0:26:d9:36:52:3b:51:c3:08:87:79:bb:
                    ef:f9:9d:4b:40:b8:7b:74:c4:87:b2:9e:a6:80:00:
                    fc:78:72:69:a1:6c:c3:c8:44:71:a0:59:65:8e:55:
                    7d:59:c4:bd:c9:45:55:d1:3f:84:91:f7:9b:6e:82:
                    02:14:d7:78:61:40:8f:7b:58:ff:b1:a4:5e:4b:47:
                    08:13:96:85:ee:e0:a5:db:30:11:16:50:f6:22:69:
                    e1:f7:fe:ff:d4:25:21:c6:ec:44:ff:0b:02:73:98:
                    a7:6c:b2:a9:d2:32:e0:ce:da:45:9d:81:d5:54:d2:
                    dc:15:d9:da:46:3d:9d:2f:1d:2d:c2:0a:56:af:ee:
                    53:a9:2c:41:24:bc:0f:4b:ef:08:8d:83:b4:73:cf:
                    c0:8b:80:a8:c2:86:d5:7a:32:71:36:2a:a3:a1:a7:
                    b0:32:06:25:68:17:82:fb:bc:cb:ee:dd:0b:f0:75:
                    a8:bb:ea:f6:ce:e1:e5:ef:c0:06:1a:b5:56:85:5f:
                    70:19:70:55:55:57:d1:2b:e4:3d:16:fb:5b:dc:c2:
                    46:55:7d:4e:47:6c:08:a2:08:ec:3b:1f:88:a5:fc:
                    26:b5:23:7b:4a:62:fa:cd:c9:61:3c:6b:7b:5c:8a:
                    3f:f9:bc:2a:28:05:29:b2:e1:75:04:e6:8d:8d:da:
                    01:ca:17:f0:f4:86:ee:5f:98:d6:ea:0e:ae:b8:4e:
                    b7:2f:63:df:48:af:d6:3b:ca:cb:fd:70:9d:9b:1c:
                    72:1f:45:bf:57:af:f0:4b:9e:62:05:0d:a4:40:4c:
                    94:3e:1f:17:f6:0b:07:6c:3e:23:a0:a1:68:c1:af:
                    39:6c:4b:37:46:8d:55:27:39:e9:03:2b:2c:33:7b:
                    99:64:c9:24:b6:d3:4e:5f:96:c8:f8:76:70:7f:a7:
                    75:a4:0e:3b:5a:bb:db:f5:a1:14:da:63:01:bb:5d:
                    9c:0e:a8:46:4d:91:a1:d4:b1:07:29:fa:88:ff:dd:
                    ca:ac:af:b1:63:5e:e6:f0:08:46:35:31:87:48:d3:
                    7b:dc:0f
                Exponent: 65537 (0x10001)
        X509v3 extensions:
            X509v3 Basic Constraints: critical
                CA:FALSE
            X509v3 Subject Key Identifier: 
                E8:D1:04:A5:50:85:DB:DA:B1:14:EE:53:A0:E3:C1:99:2C:C6:4E:CD
            X509v3 Authority Key Identifier: 
                keyid:E8:D1:04:A5:50:85:DB:DA:B1:14:EE:53:A0:E3:C1:99:2C:C6:4E:CD
                DirName:/O=NodeOPCUA/CN=NodeOPCUA
                serial:10:17

            X509v3 Subject Alternative Name: 
                URI:urn:IPAWSDX02:NodeOPCUA-DiscoveryServer, DNS:localhost, DNS:IPAWSDX02
            Netscape Comment: 
                OpenSSL Generated Certificate
            X509v3 Key Usage: critical
                Digital Signature, Non Repudiation, Key Encipherment, Data Encipherment, Key Agreement, Certificate Sign
            X509v3 Extended Key Usage: critical
                TLS Web Server Authentication, TLS Web Client Authentication
    Signature Algorithm: sha256WithRSAEncryption
         2a:89:b9:a6:1f:52:28:6c:3e:52:36:07:de:f6:fe:da:cf:1a:
         b7:73:bb:0a:b9:06:84:33:de:35:2f:75:18:cd:0e:91:09:f2:
         c6:20:ec:d0:72:dd:ff:6c:c0:d5:8d:76:ea:61:d0:0d:f0:47:
         fe:44:4d:17:00:cb:02:4f:a7:c6:a8:11:f6:92:89:40:96:54:
         54:1b:fe:4b:d4:a9:7b:6b:25:c4:56:8d:96:31:43:87:3e:2f:
         32:2b:d4:7f:d6:32:77:d0:ad:b3:3a:73:d1:f9:cf:3c:03:5c:
         ec:1c:c4:e9:65:02:65:4a:50:7f:b9:58:42:d4:1e:86:a2:40:
         12:27:34:3a:f7:c5:d6:91:9c:7d:41:a6:76:cb:bb:49:5a:f8:
         44:d2:6e:ce:dc:8b:5f:fd:fa:92:fb:a7:cc:a7:1e:16:3b:2d:
         74:2c:0c:fe:b6:4f:c0:85:8f:d9:95:84:34:3a:f5:2c:bc:82:
         34:12:ed:5b:6d:74:d0:79:b6:a9:c5:ab:76:ab:38:26:88:70:
         78:06:14:d2:ed:58:fc:99:b5:99:ff:da:30:9d:2e:c0:e8:03:
         eb:e5:a1:59:8d:19:f9:6d:37:62:fc:7d:a4:cc:c5:7c:c4:e9:
         8c:28:5c:e4:53:58:74:74:51:a4:b4:d9:52:b1:65:78:07:70:
         62:16:70:1f:0b:17:20:07:d3:42:68:5d:77:32:18:2f:2c:9f:
         37:79:9f:41:76:88:9b:4f:69:a5:7a:ae:49:43:b7:f5:b2:b1:
         91:e8:24:48:f0:09:05:03:4b:bb:9c:0f:6c:f5:b9:87:cc:b0:
         6b:6d:27:6f:a0:61:7a:74:6a:f3:a9:55:7a:ae:c4:8f:f8:16:
         b0:bc:d2:d8:41:df:02:2e:4c:18:3a:bb:68:bd:ba:b3:0a:90:
         eb:d0:ab:7c:88:9b:4c:79:27:f1:23:6c:34:42:08:e3:af:cf:
         63:2b:fe:04:e8:14:ef:3d:99:c5:f9:b6:cf:12:c2:f0:4a:29:
         17:e8:a4:ba:9f:c9:4b:16:15:56:ce:fa:65:62:c6:7d:e5:7d:
         24:a9:7d:db:e7:66:aa:3c:35:62:d3:59:53:4c:1f:66:7e:97:
         dd:2a:a3:fc:e3:12:17:7d:7e:86:c0:38:04:80:00:06:48:49:
         03:6f:1d:d5:4e:2e:07:ef:c1:83:9a:7b:53:8d:99:10:28:52:
         7d:70:b9:53:21:16:76:59:e7:d5:b0:9d:7b:59:99:84:5c:4b:
         b7:b5:e4:12:bb:7b:68:72:00:49:08:25:30:fc:9c:5b:e5:21:
         d6:30:8b:93:54:8b:e1:f8:cb:56:e3:11:d4:aa:23:b3:49:39:
         2f:bf:03:f3:46:59:50:e6
-----BEGIN CERTIFICATE-----
MIIGADCCA+igAwIBAgICEBcwDQYJKoZIhvcNAQELBQAwKDESMBAGA1UEChMJTm9k
ZU9QQ1VBMRIwEAYDVQQDEwlOb2RlT1BDVUEwIhgPMjAxODA0MTYxMTU2NTFaGA8y
MDE5MDQxNjExNTY1MVowKDESMBAGA1UEChMJTm9kZU9QQ1VBMRIwEAYDVQQDEwlO
b2RlT1BDVUEwggIiMA0GCSqGSIb3DQEBAQUAA4ICDwAwggIKAoICAQDV0+4JprAx
FYVDQvE6LlZbBG4DhMgTbr5PWmZIgj5VyYfa7nzP8c5lu6ISdeaUgXOZ5nclvxk4
4x4HVk9tRZKmJCHMrGOQgfeuMCaSTifrt2PGHm7Z5Hd0f6HOC3YFG9FgSgzujNIm
RbBbPk+2rxDEJa5ClyEXo5BdVuAm2TZSO1HDCId5u+/5nUtAuHt0xIeynqaAAPx4
cmmhbMPIRHGgWWWOVX1ZxL3JRVXRP4SR95tuggIU13hhQI97WP+xpF5LRwgTloXu
4KXbMBEWUPYiaeH3/v/UJSHG7ET/CwJzmKdssqnSMuDO2kWdgdVU0twV2dpGPZ0v
HS3CClav7lOpLEEkvA9L7wiNg7Rzz8CLgKjChtV6MnE2KqOhp7AyBiVoF4L7vMvu
3Qvwdai76vbO4eXvwAYatVaFX3AZcFVVV9Er5D0W+1vcwkZVfU5HbAiiCOw7H4il
/Ca1I3tKYvrNyWE8a3tcij/5vCooBSmy4XUE5o2N2gHKF/D0hu5fmNbqDq64Trcv
Y99Ir9Y7ysv9cJ2bHHIfRb9Xr/BLnmIFDaRATJQ+Hxf2CwdsPiOgoWjBrzlsSzdG
jVUnOekDKywze5lkySS2005flsj4dnB/p3WkDjtau9v1oRTaYwG7XZwOqEZNkaHU
sQcp+oj/3cqsr7FjXubwCEY1MYdI03vcDwIDAQABo4IBLjCCASowDAYDVR0TAQH/
BAIwADAdBgNVHQ4EFgQU6NEEpVCF29qxFO5ToOPBmSzGTs0wUQYDVR0jBEowSIAU
6NEEpVCF29qxFO5ToOPBmSzGTs2hLKQqMCgxEjAQBgNVBAoTCU5vZGVPUENVQTES
MBAGA1UEAxMJTm9kZU9QQ1VBggIQFzBIBgNVHREEQTA/hid1cm46SVBBV1NEWDAy
Ok5vZGVPUENVQS1EaXNjb3ZlcnlTZXJ2ZXKCCWxvY2FsaG9zdIIJSVBBV1NEWDAy
MCwGCWCGSAGG+EIBDQQfFh1PcGVuU1NMIEdlbmVyYXRlZCBDZXJ0aWZpY2F0ZTAO
BgNVHQ8BAf8EBAMCAvwwIAYDVR0lAQH/BBYwFAYIKwYBBQUHAwEGCCsGAQUFBwMC
MA0GCSqGSIb3DQEBCwUAA4ICAQAqibmmH1IobD5SNgfe9v7azxq3c7sKuQaEM941
L3UYzQ6RCfLGIOzQct3/bMDVjXbqYdAN8Ef+RE0XAMsCT6fGqBH2kolAllRUG/5L
1Kl7ayXEVo2WMUOHPi8yK9R/1jJ30K2zOnPR+c88A1zsHMTpZQJlSlB/uVhC1B6G
okASJzQ698XWkZx9QaZ2y7tJWvhE0m7O3Itf/fqS+6fMpx4WOy10LAz+tk/AhY/Z
lYQ0OvUsvII0Eu1bbXTQebapxat2qzgmiHB4BhTS7Vj8mbWZ/9ownS7A6APr5aFZ
jRn5bTdi/H2kzMV8xOmMKFzkU1h0dFGktNlSsWV4B3BiFnAfCxcgB9NCaF13Mhgv
LJ83eZ9BdoibT2mleq5JQ7f1srGR6CRI8AkFA0u7nA9s9bmHzLBrbSdvoGF6dGrz
qVV6rsSP+BawvNLYQd8CLkwYOrtovbqzCpDr0Kt8iJtMeSfxI2w0Qgjjr89jK/4E
6BTvPZnF+bbPEsLwSikX6KS6n8lLFhVWzvplYsZ95X0kqX3b52aqPDVi01lTTB9m
fpfdKqP84xIXfX6GwDgEgAAGSEkDbx3VTi4H78GDmntTjZkQKFJ9cLlTIRZ2WefV
sJ17WZmEXEu3teQSu3tocgBJCCUw/Jxb5SHWMIuTVIvh+MtW4xHUqiOzSTkvvwPz
RllQ5g==
-----END CERTIFICATE-----
