Certificate Request:
    Data:
        Version: 0 (0x0)
        Subject: C=FR, O=NodeOPCUA, CN=NodeOPCUA
        Subject Public Key Info:
            Public Key Algorithm: rsaEncryption
                Public-Key: (2048 bit)
                Modulus:
                    00:bb:b6:f9:f9:be:00:0a:d5:48:a1:84:e6:92:f3:
                    3b:ad:e7:75:a9:1f:b1:c2:63:4d:24:f1:80:68:3f:
                    f5:b7:8c:76:bd:57:19:8b:b2:2c:57:0c:61:5e:c7:
                    cc:74:4a:b7:cd:f3:be:60:be:9c:75:0c:25:9b:63:
                    5f:96:e0:c0:da:d7:48:42:0c:ad:5d:06:d4:18:44:
                    fe:b8:c3:73:53:aa:72:a8:94:be:31:1c:b0:61:73:
                    95:21:05:d3:c6:09:3d:10:cb:fb:19:62:d0:a0:93:
                    2f:95:88:7c:32:4b:6f:4b:11:0b:8d:8c:bc:a8:3d:
                    87:bd:e7:b6:5a:ce:ac:c7:45:42:1e:88:1b:57:0a:
                    95:89:b8:2c:49:8c:b1:f0:91:b4:b4:c9:df:ac:5c:
                    3f:27:e9:aa:00:06:a7:e3:3d:d7:7e:b1:28:f7:12:
                    b6:b4:4b:6f:3a:10:34:2f:92:b5:b3:b3:cc:3a:3c:
                    55:42:70:1c:1a:78:9b:bc:4f:89:91:10:ff:df:91:
                    72:0d:aa:c3:f3:b6:0c:3f:57:d0:75:73:05:37:94:
                    cf:5c:15:2a:21:95:4e:54:8b:ed:c1:7c:c4:54:74:
                    b3:60:97:58:f4:90:21:64:7d:f6:a5:f2:12:6f:a4:
                    a3:46:9a:1a:bb:93:73:f6:5a:a4:fb:69:8a:21:3b:
                    e2:33
                Exponent: 65537 (0x10001)
        Attributes:
        Requested Extensions:
            X509v3 Basic Constraints: 
                CA:FALSE
            X509v3 Key Usage: critical
                Certificate Sign, CRL Sign
            X509v3 Subject Alternative Name: 
                URI:undefined
    Signature Algorithm: sha256WithRSAEncryption
         2c:40:a9:7f:c8:de:5a:e1:00:6c:60:21:08:3a:87:29:7b:34:
         50:04:5e:66:89:5e:6f:c1:91:89:ce:41:0a:60:a5:3a:54:dc:
         71:e3:eb:84:11:44:2a:a5:d3:66:cc:dd:2e:7b:c4:e8:f5:c2:
         6f:b2:08:3a:44:3f:fb:9f:d3:0a:07:12:11:ec:f8:3f:2d:ea:
         6b:91:a3:ca:c7:f5:43:6d:44:17:19:3e:13:b7:f5:54:17:11:
         7c:fc:15:76:fa:d6:46:50:ba:d2:da:e1:04:d5:ec:45:06:97:
         8f:57:aa:1e:33:c9:78:7a:d7:2d:44:f0:aa:24:f7:ed:d2:0e:
         6e:5e:67:79:fd:1f:91:2b:c9:12:31:99:c8:8b:b1:e5:3c:c0:
         39:78:22:7a:ef:eb:e7:5a:89:95:3e:93:d5:22:63:71:89:ba:
         5b:f6:d4:3c:1b:86:8d:1d:15:51:16:4d:0d:9c:7c:8c:43:fa:
         43:95:bc:31:c6:f4:9e:70:23:c9:25:66:15:59:c9:b7:c9:da:
         b2:15:7d:4c:01:fb:50:6e:47:a9:12:d3:89:3a:43:9b:9c:63:
         ff:53:a0:55:2f:97:b9:c0:a9:db:e1:d2:58:34:8e:83:70:05:
         e6:35:2d:12:30:72:51:94:bd:26:5e:f2:47:f7:ad:9a:11:91:
         e5:e5:46:94
-----BEGIN CERTIFICATE REQUEST-----
MIICvDCCAaQCAQAwNTELMAkGA1UEBhMCRlIxEjAQBgNVBAoMCU5vZGVPUENVQTES
MBAGA1UEAwwJTm9kZU9QQ1VBMIIBIjANBgkqhkiG9w0BAQEFAAOCAQ8AMIIBCgKC
AQEAu7b5+b4ACtVIoYTmkvM7red1qR+xwmNNJPGAaD/1t4x2vVcZi7IsVwxhXsfM
dEq3zfO+YL6cdQwlm2NfluDA2tdIQgytXQbUGET+uMNzU6pyqJS+MRywYXOVIQXT
xgk9EMv7GWLQoJMvlYh8MktvSxELjYy8qD2Hvee2Ws6sx0VCHogbVwqVibgsSYyx
8JG0tMnfrFw/J+mqAAan4z3XfrEo9xK2tEtvOhA0L5K1s7PMOjxVQnAcGnibvE+J
kRD/35FyDarD87YMP1fQdXMFN5TPXBUqIZVOVIvtwXzEVHSzYJdY9JAhZH32pfIS
b6SjRpoau5Nz9lqk+2mKITviMwIDAQABoEIwQAYJKoZIhvcNAQkOMTMwMTAJBgNV
HRMEAjAAMA4GA1UdDwEB/wQEAwIBBjAUBgNVHREEDTALhgl1bmRlZmluZWQwDQYJ
KoZIhvcNAQELBQADggEBACxAqX/I3lrhAGxgIQg6hyl7NFAEXmaJXm/BkYnOQQpg
pTpU3HHj64QRRCql02bM3S57xOj1wm+yCDpEP/uf0woHEhHs+D8t6muRo8rH9UNt
RBcZPhO39VQXEXz8FXb61kZQutLa4QTV7EUGl49Xqh4zyXh61y1E8Kok9+3SDm5e
Z3n9H5EryRIxmciLseU8wDl4Inrv6+daiZU+k9UiY3GJulv21Dwbho0dFVEWTQ2c
fIxD+kOVvDHG9J5wI8klZhVZybfJ2rIVfUwB+1BuR6kS04k6Q5ucY/9ToFUvl7nA
qdvh0lg0joNwBeY1LRIwclGUvSZe8kf3rZoRkeXlRpQ=
-----END CERTIFICATE REQUEST-----
