Certificate Request:
    Data:
        Version: 0 (0x0)
        Subject: C=FR, O=NodeOPCUA, CN=NodeOPCUA
        Subject Public Key Info:
            Public Key Algorithm: rsaEncryption
                Public-Key: (1024 bit)
                Modulus:
                    00:9c:6c:ce:6c:df:ee:fe:04:8c:e7:d1:41:bd:e9:
                    3c:d3:f2:13:f8:62:14:9f:4b:f4:05:07:25:43:0c:
                    87:47:c1:2d:b2:6d:e1:ae:d4:1a:d2:ec:c6:b3:28:
                    e3:b1:e6:9e:3f:8e:36:e5:fc:e5:eb:54:d4:3e:6b:
                    1e:42:55:b4:ae:69:31:ad:b2:aa:8d:b9:f6:4c:f3:
                    ec:e1:7e:c7:d2:6d:61:32:dc:8b:6c:aa:20:ce:a0:
                    4b:06:9c:24:6b:b2:b9:d5:4c:fe:ef:74:54:36:2e:
                    9a:1a:1a:d6:00:28:ba:9c:54:62:50:b2:f3:91:3a:
                    ca:69:a9:c9:95:1f:1a:7a:07
                Exponent: 65537 (0x10001)
        Attributes:
        Requested Extensions:
            X509v3 Basic Constraints: 
                CA:FALSE
            X509v3 Key Usage: critical
                Certificate Sign, CRL Sign
            X509v3 Subject Alternative Name: 
                URI:undefined
    Signature Algorithm: sha256WithRSAEncryption
         22:d2:bc:9d:18:26:a8:a0:dc:4e:e1:0d:fe:8a:97:09:2f:1d:
         ab:82:5e:c7:01:60:76:5a:6a:8e:26:23:b8:7f:71:7e:04:98:
         8b:90:d2:a0:7f:d9:c8:c8:2e:22:a6:5d:a0:13:20:b2:5d:f3:
         30:2a:6b:4c:c5:94:76:f5:bc:a2:58:3c:cf:13:d7:4b:c4:ff:
         65:74:28:6c:5b:58:90:dc:7a:e4:ad:ea:73:49:5e:c5:bc:ec:
         89:26:06:fa:16:0f:a5:75:d3:cb:cb:bb:4c:69:38:3b:c6:c1:
         da:02:43:86:f9:67:63:83:d3:b0:1e:70:51:80:9b:f3:e6:60:
         3c:c3
-----BEGIN CERTIFICATE REQUEST-----
MIIBtzCCASACAQAwNTELMAkGA1UEBhMCRlIxEjAQBgNVBAoMCU5vZGVPUENVQTES
MBAGA1UEAwwJTm9kZU9QQ1VBMIGfMA0GCSqGSIb3DQEBAQUAA4GNADCBiQKBgQCc
bM5s3+7+BIzn0UG96TzT8hP4YhSfS/QFByVDDIdHwS2ybeGu1BrS7MazKOOx5p4/
jjbl/OXrVNQ+ax5CVbSuaTGtsqqNufZM8+zhfsfSbWEy3ItsqiDOoEsGnCRrsrnV
TP7vdFQ2LpoaGtYAKLqcVGJQsvOROsppqcmVHxp6BwIDAQABoEIwQAYJKoZIhvcN
AQkOMTMwMTAJBgNVHRMEAjAAMA4GA1UdDwEB/wQEAwIBBjAUBgNVHREEDTALhgl1
bmRlZmluZWQwDQYJKoZIhvcNAQELBQADgYEAItK8nRgmqKDcTuEN/oqXCS8dq4Je
xwFgdlpqjiYjuH9xfgSYi5DSoH/ZyMguIqZdoBMgsl3zMCprTMWUdvW8olg8zxPX
S8T/ZXQobFtYkNx65K3qc0lexbzsiSYG+hYPpXXTy8u7TGk4O8bB2gJDhvlnY4PT
sB5wUYCb8+ZgPMM=
-----END CERTIFICATE REQUEST-----
