Certificate:
    Data:
        Version: 3 (0x2)
        Serial Number: 4115 (0x1013)
    Signature Algorithm: sha256WithRSAEncryption
        Issuer: O=NodeOPCUA, CN=NodeOPCUA
        Validity
            Not Before: Apr 16 11:56:51 2018 GMT
            Not After : Apr 16 11:56:51 2019 GMT
        Subject: O=NodeOPCUA, CN=NodeOPCUA
        Subject Public Key Info:
            Public Key Algorithm: rsaEncryption
                Public-Key: (2048 bit)
                Modulus:
                    00:bb:b6:f9:f9:be:00:0a:d5:48:a1:84:e6:92:f3:
                    3b:ad:e7:75:a9:1f:b1:c2:63:4d:24:f1:80:68:3f:
                    f5:b7:8c:76:bd:57:19:8b:b2:2c:57:0c:61:5e:c7:
                    cc:74:4a:b7:cd:f3:be:60:be:9c:75:0c:25:9b:63:
                    5f:96:e0:c0:da:d7:48:42:0c:ad:5d:06:d4:18:44:
                    fe:b8:c3:73:53:aa:72:a8:94:be:31:1c:b0:61:73:
                    95:21:05:d3:c6:09:3d:10:cb:fb:19:62:d0:a0:93:
                    2f:95:88:7c:32:4b:6f:4b:11:0b:8d:8c:bc:a8:3d:
                    87:bd:e7:b6:5a:ce:ac:c7:45:42:1e:88:1b:57:0a:
                    95:89:b8:2c:49:8c:b1:f0:91:b4:b4:c9:df:ac:5c:
                    3f:27:e9:aa:00:06:a7:e3:3d:d7:7e:b1:28:f7:12:
                    b6:b4:4b:6f:3a:10:34:2f:92:b5:b3:b3:cc:3a:3c:
                    55:42:70:1c:1a:78:9b:bc:4f:89:91:10:ff:df:91:
                    72:0d:aa:c3:f3:b6:0c:3f:57:d0:75:73:05:37:94:
                    cf:5c:15:2a:21:95:4e:54:8b:ed:c1:7c:c4:54:74:
                    b3:60:97:58:f4:90:21:64:7d:f6:a5:f2:12:6f:a4:
                    a3:46:9a:1a:bb:93:73:f6:5a:a4:fb:69:8a:21:3b:
                    e2:33
                Exponent: 65537 (0x10001)
        X509v3 extensions:
            X509v3 Basic Constraints: critical
                CA:FALSE
            X509v3 Subject Key Identifier: 
                74:09:E4:86:CD:89:21:C5:AC:DC:15:B6:BF:54:5A:EF:9A:3F:5F:2D
            X509v3 Authority Key Identifier: 
                keyid:74:09:E4:86:CD:89:21:C5:AC:DC:15:B6:BF:54:5A:EF:9A:3F:5F:2D
                DirName:/O=NodeOPCUA/CN=NodeOPCUA
                serial:10:13

            X509v3 Subject Alternative Name: 
                URI:urn:IPAWSDX02:NodeOPCUA-DiscoveryServer, DNS:localhost, DNS:IPAWSDX02
            Netscape Comment: 
                OpenSSL Generated Certificate
            X509v3 Key Usage: critical
                Digital Signature, Non Repudiation, Key Encipherment, Data Encipherment, Key Agreement, Certificate Sign
            X509v3 Extended Key Usage: critical
                TLS Web Server Authentication, TLS Web Client Authentication
    Signature Algorithm: sha256WithRSAEncryption
         93:81:79:81:cf:d5:41:af:7b:45:d1:89:94:98:77:1d:8d:ae:
         85:9a:85:88:2a:87:f2:e5:10:8c:5b:ef:71:c1:82:2e:ae:8c:
         ad:91:61:14:72:69:c8:5f:73:36:b8:bc:ac:53:78:68:99:7d:
         65:63:41:29:64:c2:3f:14:19:a1:1a:03:f0:e1:63:3f:cd:80:
         a0:db:cd:04:4f:b8:a5:8d:eb:a7:37:8b:97:02:b5:92:20:c6:
         ce:24:62:0a:10:7f:39:8d:5f:b0:df:f1:35:7b:6c:1a:fb:87:
         8b:57:cf:a3:cf:a3:83:44:db:79:df:d7:68:06:7b:a5:2d:c9:
         4c:86:d7:fe:0a:d1:46:2c:f7:ec:b7:16:f8:b5:82:50:0d:59:
         bf:24:da:c7:1b:ce:37:17:0a:ad:b3:3d:c0:f1:0c:3a:a1:a1:
         d7:63:d1:10:f5:89:2e:1b:67:00:6f:75:93:19:fe:dd:1a:dd:
         b4:f9:34:28:3e:ab:62:ec:6e:70:01:f5:9d:1b:ac:88:61:72:
         d6:8b:76:02:dd:39:ce:15:f5:97:25:04:f2:7b:5e:21:4d:ad:
         5b:ca:6f:e0:0a:2e:96:f4:ba:c3:33:12:14:b0:7c:0a:cc:8d:
         c9:88:15:22:4c:c0:73:b3:96:f5:f0:14:e7:e7:9e:2f:cc:9a:
         2e:c9:af:a5
-----BEGIN CERTIFICATE-----
MIIEADCCAuigAwIBAgICEBMwDQYJKoZIhvcNAQELBQAwKDESMBAGA1UEChMJTm9k
ZU9QQ1VBMRIwEAYDVQQDEwlOb2RlT1BDVUEwIhgPMjAxODA0MTYxMTU2NTFaGA8y
MDE5MDQxNjExNTY1MVowKDESMBAGA1UEChMJTm9kZU9QQ1VBMRIwEAYDVQQDEwlO
b2RlT1BDVUEwggEiMA0GCSqGSIb3DQEBAQUAA4IBDwAwggEKAoIBAQC7tvn5vgAK
1UihhOaS8zut53WpH7HCY00k8YBoP/W3jHa9VxmLsixXDGFex8x0SrfN875gvpx1
DCWbY1+W4MDa10hCDK1dBtQYRP64w3NTqnKolL4xHLBhc5UhBdPGCT0Qy/sZYtCg
ky+ViHwyS29LEQuNjLyoPYe957ZazqzHRUIeiBtXCpWJuCxJjLHwkbS0yd+sXD8n
6aoABqfjPdd+sSj3Era0S286EDQvkrWzs8w6PFVCcBwaeJu8T4mREP/fkXINqsPz
tgw/V9B1cwU3lM9cFSohlU5Ui+3BfMRUdLNgl1j0kCFkffal8hJvpKNGmhq7k3P2
WqT7aYohO+IzAgMBAAGjggEuMIIBKjAMBgNVHRMBAf8EAjAAMB0GA1UdDgQWBBR0
CeSGzYkhxazcFba/VFrvmj9fLTBRBgNVHSMESjBIgBR0CeSGzYkhxazcFba/VFrv
mj9fLaEspCowKDESMBAGA1UEChMJTm9kZU9QQ1VBMRIwEAYDVQQDEwlOb2RlT1BD
VUGCAhATMEgGA1UdEQRBMD+GJ3VybjpJUEFXU0RYMDI6Tm9kZU9QQ1VBLURpc2Nv
dmVyeVNlcnZlcoIJbG9jYWxob3N0gglJUEFXU0RYMDIwLAYJYIZIAYb4QgENBB8W
HU9wZW5TU0wgR2VuZXJhdGVkIENlcnRpZmljYXRlMA4GA1UdDwEB/wQEAwIC/DAg
BgNVHSUBAf8EFjAUBggrBgEFBQcDAQYIKwYBBQUHAwIwDQYJKoZIhvcNAQELBQAD
ggEBAJOBeYHP1UGve0XRiZSYdx2NroWahYgqh/LlEIxb73HBgi6ujK2RYRRyachf
cza4vKxTeGiZfWVjQSlkwj8UGaEaA/DhYz/NgKDbzQRPuKWN66c3i5cCtZIgxs4k
YgoQfzmNX7Df8TV7bBr7h4tXz6PPo4NE23nf12gGe6UtyUyG1/4K0UYs9+y3Fvi1
glANWb8k2scbzjcXCq2zPcDxDDqhoddj0RD1iS4bZwBvdZMZ/t0a3bT5NCg+q2Ls
bnAB9Z0brIhhctaLdgLdOc4V9ZclBPJ7XiFNrVvKb+AKLpb0usMzEhSwfArMjcmI
FSJMwHOzlvXwFOfnni/Mmi7Jr6U=
-----END CERTIFICATE-----
