Certificate Request:
    Data:
        Version: 0 (0x0)
        Subject: C=FR, O=NodeOPCUA, CN=NodeOPCUA
        Subject Public Key Info:
            Public Key Algorithm: rsaEncryption
                Public-Key: (3072 bit)
                Modulus:
                    00:9b:a3:da:1c:e8:e2:e2:8c:a3:d7:17:f5:36:1d:
                    74:26:8d:fb:dc:2a:e1:1e:dd:e6:ec:a2:e3:d8:30:
                    46:4c:92:2b:40:d2:21:51:d3:7f:0f:47:8f:f0:e5:
                    52:60:33:0c:1e:56:5a:76:6e:1d:b5:cc:d3:98:bd:
                    ae:3e:79:bf:3b:e1:e1:ff:e2:1a:0e:dd:a0:08:21:
                    f3:41:9d:39:68:c7:e0:5d:1c:ee:a4:d4:9b:97:dc:
                    17:a0:58:a9:b9:61:fa:2b:43:67:8d:ae:4c:43:26:
                    d7:f2:50:d7:02:83:cd:ed:31:52:84:e0:25:4b:d9:
                    63:fa:7d:a1:e6:95:a4:19:e2:7b:ff:75:e9:6f:ec:
                    28:22:b6:30:e9:3e:db:bb:35:82:6f:3f:10:40:a1:
                    67:fb:39:12:e2:6f:91:0e:3a:d3:94:e2:95:d8:a4:
                    cc:f9:80:7e:95:58:d7:91:6c:a2:96:e9:28:89:db:
                    c9:1f:dc:16:ca:c7:64:19:c8:e1:5d:82:20:b4:f0:
                    a0:15:c1:74:b9:8a:9e:dc:1f:f8:83:63:3e:e7:b0:
                    2f:11:c2:a1:2a:5b:19:eb:b7:cd:c8:80:02:b0:21:
                    14:79:de:36:2d:dc:83:dd:9d:34:7a:36:62:64:ca:
                    70:bb:0e:e5:a2:e2:37:80:8d:85:93:87:5e:3e:79:
                    b3:3f:5b:69:c5:01:80:84:a0:ea:e6:c4:51:8e:7a:
                    ee:9b:3f:41:4b:52:12:d7:d5:32:1a:32:4a:0f:b4:
                    1c:41:2e:d6:32:01:2c:46:b8:ef:83:58:ee:77:13:
                    c7:29:bd:7d:aa:c4:21:06:58:26:be:44:68:e2:21:
                    c4:81:c2:a5:3f:d5:8e:cc:9c:d4:73:ec:a8:08:35:
                    fc:4a:a8:c1:62:b0:1a:f7:4d:4d:4b:88:5e:40:c5:
                    be:5e:b8:4f:e4:1c:03:2c:25:1e:65:51:16:2b:27:
                    41:b4:93:96:df:35:d1:9e:bb:b9:87:8e:e0:69:2e:
                    04:38:f1:c5:dd:ac:84:88:76:af
                Exponent: 65537 (0x10001)
        Attributes:
        Requested Extensions:
            X509v3 Basic Constraints: 
                CA:FALSE
            X509v3 Key Usage: critical
                Certificate Sign, CRL Sign
            X509v3 Subject Alternative Name: 
                URI:undefined
    Signature Algorithm: sha256WithRSAEncryption
         4f:55:cb:7d:38:ed:6d:79:fc:50:d1:86:97:37:6d:25:09:4c:
         b6:6b:0f:74:0a:87:9e:2d:ed:ef:01:b3:da:ba:21:0a:84:d8:
         83:11:b3:a9:3b:b5:8e:01:4c:5a:bc:4b:19:61:9a:c7:f9:d8:
         42:ab:7c:71:be:d3:f4:2f:b2:c4:30:0f:97:ff:08:8b:f0:d3:
         c7:e0:65:31:4b:0a:01:c3:9d:76:2a:2a:ec:02:82:d5:25:de:
         8f:b7:75:16:25:69:d3:ee:0f:54:3c:24:c1:94:16:02:52:00:
         99:53:4d:e9:7f:28:f1:76:40:65:c6:a8:fc:62:92:ae:10:7e:
         9c:96:e9:d4:ff:1e:2b:4d:b2:14:0d:c1:05:8f:81:3a:df:6f:
         5e:8e:83:ed:bf:4c:d5:ae:f5:ee:b1:48:97:1d:52:cc:95:8d:
         ad:3a:17:aa:58:fe:5b:82:74:e7:82:3b:36:a1:8b:42:dc:27:
         e1:2e:c8:37:95:75:30:78:db:43:ad:5c:0b:66:4b:9d:44:4c:
         f6:58:42:dc:76:01:4e:4a:d9:0f:cc:05:04:36:2c:31:13:d2:
         af:b1:5d:7a:b8:f8:0f:b8:e3:6a:48:34:84:cb:7f:eb:3b:99:
         fa:22:ea:ac:5b:cd:34:30:5c:94:69:4e:f6:60:f3:f2:1c:e1:
         44:c5:7d:1b:46:1d:40:32:a3:15:70:a1:b2:3a:0c:37:56:b6:
         a9:4d:71:2c:c9:bd:37:3f:56:1c:be:2a:e5:a6:d4:3e:18:11:
         9f:f9:9b:57:47:1c:02:e8:d3:5c:df:e6:6f:88:fe:0a:ad:ca:
         9e:cc:53:32:d0:d3:54:61:28:10:3b:22:75:6e:70:a9:97:3e:
         6a:ce:19:e6:d3:55:2c:9b:81:cc:a6:d0:a7:ca:d4:e0:28:9c:
         0f:dc:76:4b:ed:a0:94:b9:95:4b:6c:d2:70:82:5c:86:52:c4:
         68:29:3f:41:f5:6d:de:67:b1:33:5e:87:5e:54:72:90:e6:0b:
         d8:86:e5:56:83:e5
-----BEGIN CERTIFICATE REQUEST-----
MIIDvDCCAiQCAQAwNTELMAkGA1UEBhMCRlIxEjAQBgNVBAoMCU5vZGVPUENVQTES
MBAGA1UEAwwJTm9kZU9QQ1VBMIIBojANBgkqhkiG9w0BAQEFAAOCAY8AMIIBigKC
AYEAm6PaHOji4oyj1xf1Nh10Jo373CrhHt3m7KLj2DBGTJIrQNIhUdN/D0eP8OVS
YDMMHlZadm4dtczTmL2uPnm/O+Hh/+IaDt2gCCHzQZ05aMfgXRzupNSbl9wXoFip
uWH6K0Nnja5MQybX8lDXAoPN7TFShOAlS9lj+n2h5pWkGeJ7/3Xpb+woIrYw6T7b
uzWCbz8QQKFn+zkS4m+RDjrTlOKV2KTM+YB+lVjXkWyilukoidvJH9wWysdkGcjh
XYIgtPCgFcF0uYqe3B/4g2M+57AvEcKhKlsZ67fNyIACsCEUed42LdyD3Z00ejZi
ZMpwuw7louI3gI2Fk4dePnmzP1tpxQGAhKDq5sRRjnrumz9BS1IS19UyGjJKD7Qc
QS7WMgEsRrjvg1judxPHKb19qsQhBlgmvkRo4iHEgcKlP9WOzJzUc+yoCDX8SqjB
YrAa901NS4heQMW+XrhP5BwDLCUeZVEWKydBtJOW3zXRnru5h47gaS4EOPHF3ayE
iHavAgMBAAGgQjBABgkqhkiG9w0BCQ4xMzAxMAkGA1UdEwQCMAAwDgYDVR0PAQH/
BAQDAgEGMBQGA1UdEQQNMAuGCXVuZGVmaW5lZDANBgkqhkiG9w0BAQsFAAOCAYEA
T1XLfTjtbXn8UNGGlzdtJQlMtmsPdAqHni3t7wGz2rohCoTYgxGzqTu1jgFMWrxL
GWGax/nYQqt8cb7T9C+yxDAPl/8Ii/DTx+BlMUsKAcOddioq7AKC1SXej7d1FiVp
0+4PVDwkwZQWAlIAmVNN6X8o8XZAZcao/GKSrhB+nJbp1P8eK02yFA3BBY+BOt9v
Xo6D7b9M1a717rFIlx1SzJWNrToXqlj+W4J054I7NqGLQtwn4S7IN5V1MHjbQ61c
C2ZLnURM9lhC3HYBTkrZD8wFBDYsMRPSr7Fderj4D7jjakg0hMt/6zuZ+iLqrFvN
NDBclGlO9mDz8hzhRMV9G0YdQDKjFXChsjoMN1a2qU1xLMm9Nz9WHL4q5abUPhgR
n/mbV0ccAujTXN/mb4j+Cq3KnsxTMtDTVGEoEDsidW5wqZc+as4Z5tNVLJuBzKbQ
p8rU4CicD9x2S+2glLmVS2zScIJchlLEaCk/QfVt3mexM16HXlRykOYL2IblVoPl
-----END CERTIFICATE REQUEST-----
