Certificate Request:
    Data:
        Version: 0 (0x0)
        Subject: C=FR, O=NodeOPCUA, CN=NodeOPCUA
        Subject Public Key Info:
            Public Key Algorithm: rsaEncryption
                Public-Key: (1024 bit)
                Modulus:
                    00:bd:69:22:ac:8e:86:2e:23:37:bc:9e:b7:00:de:
                    ac:02:e0:85:89:22:58:ef:92:79:29:54:4e:86:39:
                    cf:5d:86:be:06:86:a6:3c:71:01:82:de:5d:10:69:
                    d1:db:00:4f:21:07:33:40:8b:da:70:c5:7b:5c:ed:
                    cb:b1:a2:0e:2b:42:05:a5:a7:dd:bf:52:0f:d0:23:
                    39:d9:c9:c6:16:af:b3:56:00:3d:2e:51:a9:5e:35:
                    ab:12:b5:79:11:89:b4:cf:da:e1:8f:27:aa:e0:b0:
                    30:8e:6b:f1:a3:5d:0e:8b:c1:e4:df:72:e4:ed:7f:
                    07:ac:88:ca:85:8d:9f:13:1d
                Exponent: 65537 (0x10001)
        Attributes:
        Requested Extensions:
            X509v3 Basic Constraints: 
                CA:FALSE
            X509v3 Key Usage: critical
                Certificate Sign, CRL Sign
            X509v3 Subject Alternative Name: 
                URI:undefined
    Signature Algorithm: sha256WithRSAEncryption
         52:65:c8:47:22:3f:ab:7f:12:77:76:92:fc:79:09:ab:3b:69:
         e6:99:52:c9:e3:dd:98:a5:8d:2f:3c:f2:11:44:28:df:55:9e:
         c3:b0:54:ca:e3:df:de:82:48:32:3c:ed:8e:86:d2:7b:47:36:
         a3:6b:51:d9:f7:fd:75:49:db:ca:a3:be:23:4d:4e:05:eb:18:
         8c:11:fd:dc:14:f8:8c:b9:1e:fa:64:ea:1d:8c:0d:7f:d7:67:
         b1:da:d5:77:68:02:61:ce:cb:2e:23:ec:25:84:13:25:b9:94:
         1d:57:e2:9c:d7:41:b9:57:2a:73:96:45:8a:2c:01:94:df:f6:
         c5:2a
-----BEGIN CERTIFICATE REQUEST-----
MIIBtzCCASACAQAwNTELMAkGA1UEBhMCRlIxEjAQBgNVBAoMCU5vZGVPUENVQTES
MBAGA1UEAwwJTm9kZU9QQ1VBMIGfMA0GCSqGSIb3DQEBAQUAA4GNADCBiQKBgQC9
aSKsjoYuIze8nrcA3qwC4IWJIljvknkpVE6GOc9dhr4GhqY8cQGC3l0QadHbAE8h
BzNAi9pwxXtc7cuxog4rQgWlp92/Ug/QIznZycYWr7NWAD0uUaleNasStXkRibTP
2uGPJ6rgsDCOa/GjXQ6LweTfcuTtfwesiMqFjZ8THQIDAQABoEIwQAYJKoZIhvcN
AQkOMTMwMTAJBgNVHRMEAjAAMA4GA1UdDwEB/wQEAwIBBjAUBgNVHREEDTALhgl1
bmRlZmluZWQwDQYJKoZIhvcNAQELBQADgYEAUmXIRyI/q38Sd3aS/HkJqztp5plS
yePdmKWNLzzyEUQo31Wew7BUyuPf3oJIMjztjobSe0c2o2tR2ff9dUnbyqO+I01O
BesYjBH93BT4jLke+mTqHYwNf9dnsdrVd2gCYc7LLiPsJYQTJbmUHVfinNdBuVcq
c5ZFiiwBlN/2xSo=
-----END CERTIFICATE REQUEST-----
