Certificate Request:
    Data:
        Version: 0 (0x0)
        Subject: C=FR, O=NodeOPCUA, CN=NodeOPCUA
        Subject Public Key Info:
            Public Key Algorithm: rsaEncryption
                Public-Key: (3072 bit)
                Modulus:
                    00:f4:ee:53:52:f5:df:95:f0:e4:84:ef:ed:97:ff:
                    29:8e:c2:31:9c:0d:fd:ac:0c:75:f1:60:ea:93:52:
                    e4:f8:5b:e2:9b:00:05:20:b5:20:76:9d:fc:cc:11:
                    38:47:09:3d:77:18:88:a7:91:42:43:eb:8f:8a:69:
                    3f:87:0c:d1:b3:56:d7:c2:46:87:63:7d:98:79:76:
                    b6:dc:b9:6f:0e:99:67:07:2c:66:63:46:d5:6e:2f:
                    58:b8:7c:c1:45:db:b8:85:f1:be:0c:0a:cd:14:62:
                    de:8b:93:51:82:1e:ce:ed:fd:f9:11:81:73:8d:9f:
                    a1:1f:35:0a:2a:56:55:a1:c1:d2:d0:9e:5f:91:48:
                    7e:b2:dc:fe:f0:7e:31:86:d6:80:92:87:79:65:bf:
                    3d:5d:ec:c2:9b:41:6b:46:36:b4:5b:c6:7a:eb:ad:
                    3f:e3:97:cb:e1:d6:b5:0e:d7:fd:26:a4:86:76:d6:
                    7e:e8:6a:5d:60:2b:cf:4d:21:79:e0:28:74:85:03:
                    a7:7f:40:19:b4:b8:e5:a1:82:4e:e0:60:5a:61:8e:
                    b1:a9:dc:2b:ea:3c:e3:e7:4a:53:d2:83:93:ce:b5:
                    90:ca:d0:13:c8:2a:93:bc:cc:b7:04:a8:c1:9d:ac:
                    0a:af:db:86:f2:40:ab:ca:1f:1f:75:7b:92:1f:40:
                    98:49:04:97:54:ad:45:8e:01:b1:6a:36:be:1f:7d:
                    42:2b:7a:a5:92:24:3a:db:82:d6:59:3d:ed:f7:39:
                    dc:c3:ab:39:1d:73:ce:41:f4:71:11:f6:8d:45:5f:
                    e5:9f:2d:7f:fb:62:cf:c7:10:92:99:dc:dc:1c:e0:
                    01:6f:4a:10:a1:fa:bb:d8:4c:68:35:2d:cb:61:ac:
                    00:7e:c9:ee:d3:72:d6:0f:a0:77:b8:e0:fd:1d:75:
                    d4:15:ad:b9:0f:47:b1:6d:fe:45:20:0b:ab:4c:3d:
                    a4:44:7f:74:0b:39:23:0a:b3:76:42:60:2c:7a:82:
                    45:26:5c:a2:68:14:dc:32:4e:2d
                Exponent: 65537 (0x10001)
        Attributes:
        Requested Extensions:
            X509v3 Basic Constraints: 
                CA:FALSE
            X509v3 Key Usage: critical
                Certificate Sign, CRL Sign
            X509v3 Subject Alternative Name: 
                URI:undefined
    Signature Algorithm: sha256WithRSAEncryption
         94:b4:ed:9c:f6:7b:ca:c3:7a:a4:3a:82:08:0a:f5:03:59:20:
         11:e8:d1:bc:f0:e9:44:06:b8:49:8d:1b:81:27:d7:b6:ca:c7:
         91:0e:b4:1c:04:1c:dc:1a:56:4b:c5:4e:1d:ba:b0:0c:79:1b:
         da:9d:7e:83:c4:95:2d:bb:9d:68:76:84:78:04:77:7d:3e:b6:
         79:76:f7:c6:d4:17:7c:6f:a7:a4:37:9b:e2:3e:5b:1a:2f:67:
         90:7a:6d:69:23:2c:73:84:e1:6c:63:27:b7:6a:3f:de:45:87:
         97:7f:86:2e:3b:ae:9f:c4:ef:44:ba:ae:a9:65:b0:67:1e:d2:
         48:e0:22:d0:1e:5e:26:b1:b4:6e:c3:fd:3a:5d:5f:36:36:6f:
         01:be:eb:d8:3e:84:91:94:45:44:57:73:6c:97:d2:27:43:3d:
         4c:08:de:76:f6:55:02:dc:a2:5d:fd:f6:15:d5:1f:45:76:69:
         ff:91:82:a4:65:de:92:d3:c3:6a:87:2d:4d:98:a1:da:fc:f1:
         83:3c:d0:46:08:b8:c9:b1:f4:d3:12:7d:95:61:a1:bf:4c:17:
         38:60:a5:d6:94:60:83:b7:b8:6d:a7:4e:0e:0d:4d:8a:12:20:
         f9:ed:c6:0d:76:8a:ef:df:0d:b7:51:41:af:19:64:e5:36:39:
         d4:f6:ae:84:08:e4:85:d6:c5:02:c5:f9:e6:44:b2:4a:e2:b4:
         ad:c0:83:a4:4f:85:02:af:6d:a4:36:5f:a8:e1:34:f6:5d:df:
         70:06:d6:c8:e5:59:8b:5a:1d:91:87:0c:38:ae:ae:7a:01:e1:
         3a:2c:62:c5:6a:6e:56:ce:60:19:85:67:d6:2e:e3:b8:81:32:
         b9:99:dd:dc:22:e3:fe:34:04:2b:50:3d:82:b6:01:23:f2:77:
         bb:1a:c9:8c:c9:b2:83:e3:34:ab:bb:5a:b0:69:75:1f:10:1d:
         b6:ed:07:a8:f1:63:e6:30:38:a5:f1:6d:d4:d0:f2:23:bc:a1:
         54:3b:b0:5a:7a:c2
-----BEGIN CERTIFICATE REQUEST-----
MIIDvDCCAiQCAQAwNTELMAkGA1UEBhMCRlIxEjAQBgNVBAoMCU5vZGVPUENVQTES
MBAGA1UEAwwJTm9kZU9QQ1VBMIIBojANBgkqhkiG9w0BAQEFAAOCAY8AMIIBigKC
AYEA9O5TUvXflfDkhO/tl/8pjsIxnA39rAx18WDqk1Lk+FvimwAFILUgdp38zBE4
Rwk9dxiIp5FCQ+uPimk/hwzRs1bXwkaHY32YeXa23LlvDplnByxmY0bVbi9YuHzB
Rdu4hfG+DArNFGLei5NRgh7O7f35EYFzjZ+hHzUKKlZVocHS0J5fkUh+stz+8H4x
htaAkod5Zb89XezCm0FrRja0W8Z6660/45fL4da1Dtf9JqSGdtZ+6GpdYCvPTSF5
4Ch0hQOnf0AZtLjloYJO4GBaYY6xqdwr6jzj50pT0oOTzrWQytATyCqTvMy3BKjB
nawKr9uG8kCryh8fdXuSH0CYSQSXVK1FjgGxaja+H31CK3qlkiQ624LWWT3t9znc
w6s5HXPOQfRxEfaNRV/lny1/+2LPxxCSmdzcHOABb0oQofq72ExoNS3LYawAfsnu
03LWD6B3uOD9HXXUFa25D0exbf5FIAurTD2kRH90CzkjCrN2QmAseoJFJlyiaBTc
Mk4tAgMBAAGgQjBABgkqhkiG9w0BCQ4xMzAxMAkGA1UdEwQCMAAwDgYDVR0PAQH/
BAQDAgEGMBQGA1UdEQQNMAuGCXVuZGVmaW5lZDANBgkqhkiG9w0BAQsFAAOCAYEA
lLTtnPZ7ysN6pDqCCAr1A1kgEejRvPDpRAa4SY0bgSfXtsrHkQ60HAQc3BpWS8VO
HbqwDHkb2p1+g8SVLbudaHaEeAR3fT62eXb3xtQXfG+npDeb4j5bGi9nkHptaSMs
c4ThbGMnt2o/3kWHl3+GLjuun8TvRLquqWWwZx7SSOAi0B5eJrG0bsP9Ol1fNjZv
Ab7r2D6EkZRFRFdzbJfSJ0M9TAjedvZVAtyiXf32FdUfRXZp/5GCpGXektPDaoct
TZih2vzxgzzQRgi4ybH00xJ9lWGhv0wXOGCl1pRgg7e4badODg1NihIg+e3GDXaK
798Nt1FBrxlk5TY51PauhAjkhdbFAsX55kSySuK0rcCDpE+FAq9tpDZfqOE09l3f
cAbWyOVZi1odkYcMOK6uegHhOixixWpuVs5gGYVn1i7juIEyuZnd3CLj/jQEK1A9
grYBI/J3uxrJjMmyg+M0q7tasGl1HxAdtu0HqPFj5jA4pfFt1NDyI7yhVDuwWnrC
-----END CERTIFICATE REQUEST-----
