Certificate Request:
    Data:
        Version: 0 (0x0)
        Subject: C=FR, O=NodeOPCUA, CN=NodeOPCUA
        Subject Public Key Info:
            Public Key Algorithm: rsaEncryption
                Public-Key: (2048 bit)
                Modulus:
                    00:be:98:cd:2e:fd:e5:44:e8:db:ae:66:18:75:a6:
                    c8:eb:94:df:7f:df:24:dd:83:1d:2f:07:e4:d2:da:
                    a7:be:e1:7c:3d:73:24:9e:f9:49:29:d6:cd:96:66:
                    e9:b8:00:43:cd:79:80:a6:ae:3a:4d:cd:9e:65:7e:
                    25:5f:e9:f2:9c:b9:81:39:62:a1:97:b1:57:28:28:
                    b6:97:97:2c:48:d0:f8:4c:2d:59:a6:8b:d8:91:60:
                    b1:0f:09:21:17:1f:d4:e3:22:ae:57:71:74:03:6b:
                    3e:b9:e7:0f:44:61:ff:33:43:2f:d3:17:96:40:61:
                    1a:01:89:c8:79:92:4e:89:33:4e:61:d8:de:97:2f:
                    98:cf:a6:9c:b3:39:8c:71:c8:9e:c0:90:5e:7e:20:
                    13:de:91:88:a2:bd:3b:50:1a:a6:e7:99:d4:3f:47:
                    1e:ed:3b:54:22:97:82:cb:cc:ff:91:b4:36:52:ad:
                    ba:1e:07:19:62:01:1f:d6:ff:df:94:78:a7:ed:eb:
                    aa:5b:ea:90:22:76:d3:e3:d5:37:75:e9:f4:ac:1d:
                    15:9f:1c:96:0d:eb:58:0b:77:5a:1c:d8:f8:ae:cd:
                    ed:38:da:d7:5a:ad:c2:e1:bd:7d:65:40:4e:ba:52:
                    cf:7c:7b:86:70:98:32:40:fa:cd:a4:38:f5:81:4e:
                    73:13
                Exponent: 65537 (0x10001)
        Attributes:
        Requested Extensions:
            X509v3 Basic Constraints: 
                CA:FALSE
            X509v3 Key Usage: critical
                Certificate Sign, CRL Sign
            X509v3 Subject Alternative Name: 
                URI:undefined
    Signature Algorithm: sha256WithRSAEncryption
         7f:d9:2d:20:22:3b:77:01:87:2b:80:1d:6c:b2:48:f6:15:7d:
         99:4a:81:b1:2b:72:86:32:d6:8e:fd:66:f2:98:54:b7:f6:78:
         50:9a:97:0b:4c:6f:2b:14:9a:c3:d6:2b:a8:d6:d0:58:bb:a2:
         c4:0d:83:fa:6a:e5:e7:ae:c3:7c:2b:33:b8:68:46:35:61:82:
         67:5a:0a:cb:93:eb:b4:47:94:28:89:e9:46:cd:4f:84:9f:50:
         1b:ae:42:34:3e:aa:c9:e8:41:49:de:64:f8:a4:2c:92:59:bc:
         18:bf:38:fd:21:2d:63:8f:a1:85:fa:19:5f:f0:b3:8f:87:00:
         d9:25:01:c9:05:84:b5:98:90:f0:f5:d0:56:1e:73:e3:b8:3c:
         1a:28:8b:d5:13:1e:ee:f0:5f:b8:42:11:94:49:b5:6e:7f:ae:
         46:d2:63:bc:c4:48:7b:fd:58:f2:37:65:1d:cb:90:b6:38:15:
         a2:89:76:31:bf:92:d0:2d:60:9f:69:02:cd:80:52:1f:5b:d2:
         41:e2:02:6c:fa:91:52:b8:5c:6b:9e:4d:f0:b7:bc:8c:2e:2e:
         e9:86:69:f9:d3:ed:48:9c:10:5b:b8:a3:64:e3:de:9f:62:61:
         06:cd:9a:c7:f0:25:be:c0:01:70:6b:6e:a5:7f:56:0a:7b:dc:
         ab:bc:9d:5f
-----BEGIN CERTIFICATE REQUEST-----
MIICvDCCAaQCAQAwNTELMAkGA1UEBhMCRlIxEjAQBgNVBAoMCU5vZGVPUENVQTES
MBAGA1UEAwwJTm9kZU9QQ1VBMIIBIjANBgkqhkiG9w0BAQEFAAOCAQ8AMIIBCgKC
AQEAvpjNLv3lROjbrmYYdabI65Tff98k3YMdLwfk0tqnvuF8PXMknvlJKdbNlmbp
uABDzXmApq46Tc2eZX4lX+nynLmBOWKhl7FXKCi2l5csSND4TC1ZpovYkWCxDwkh
Fx/U4yKuV3F0A2s+uecPRGH/M0Mv0xeWQGEaAYnIeZJOiTNOYdjely+Yz6acszmM
cciewJBefiAT3pGIor07UBqm55nUP0ce7TtUIpeCy8z/kbQ2Uq26HgcZYgEf1v/f
lHin7euqW+qQInbT49U3den0rB0VnxyWDetYC3daHNj4rs3tONrXWq3C4b19ZUBO
ulLPfHuGcJgyQPrNpDj1gU5zEwIDAQABoEIwQAYJKoZIhvcNAQkOMTMwMTAJBgNV
HRMEAjAAMA4GA1UdDwEB/wQEAwIBBjAUBgNVHREEDTALhgl1bmRlZmluZWQwDQYJ
KoZIhvcNAQELBQADggEBAH/ZLSAiO3cBhyuAHWyySPYVfZlKgbErcoYy1o79ZvKY
VLf2eFCalwtMbysUmsPWK6jW0Fi7osQNg/pq5eeuw3wrM7hoRjVhgmdaCsuT67RH
lCiJ6UbNT4SfUBuuQjQ+qsnoQUneZPikLJJZvBi/OP0hLWOPoYX6GV/ws4+HANkl
AckFhLWYkPD10FYec+O4PBooi9UTHu7wX7hCEZRJtW5/rkbSY7zESHv9WPI3ZR3L
kLY4FaKJdjG/ktAtYJ9pAs2AUh9b0kHiAmz6kVK4XGueTfC3vIwuLumGafnT7Uic
EFu4o2Tj3p9iYQbNmsfwJb7AAXBrbqV/Vgp73Ku8nV8=
-----END CERTIFICATE REQUEST-----
