Certificate Request:
    Data:
        Version: 0 (0x0)
        Subject: C=FR, O=NodeOPCUA, CN=NodeOPCUA
        Subject Public Key Info:
            Public Key Algorithm: rsaEncryption
                Public-Key: (4096 bit)
                Modulus:
                    00:e0:87:f4:6a:50:47:70:21:38:62:95:68:a1:4e:
                    cd:7d:ea:e5:eb:1c:8d:a7:66:4d:fd:19:74:10:ee:
                    e0:ac:2f:c4:9a:0d:fa:37:2d:bf:f2:b6:1d:8e:c5:
                    ff:ad:60:47:56:87:51:87:ca:09:bb:d5:ea:a6:cf:
                    85:65:5e:db:90:55:d4:c7:e6:a7:86:c9:59:58:db:
                    40:15:b7:81:7b:cd:17:c3:7f:76:b3:40:a2:b4:ee:
                    49:4e:51:f1:95:51:74:be:ba:94:36:33:92:82:a4:
                    78:a6:41:e3:36:96:7a:71:8c:d6:79:24:56:95:0f:
                    89:ab:e8:53:24:80:36:5d:78:9e:95:6e:6c:bb:19:
                    1a:0c:07:5d:4f:bc:7a:07:69:da:f0:aa:9f:51:5b:
                    38:91:0d:9b:3f:2e:20:a8:7c:6f:20:a0:42:87:67:
                    d1:f6:0e:f2:e9:85:ec:c0:0e:57:cc:ec:18:bc:7c:
                    71:fb:d5:e6:77:21:e9:07:c3:df:aa:31:59:3b:0a:
                    16:d6:01:92:f2:df:e5:cf:c1:2b:5f:51:dd:00:03:
                    d6:62:63:9b:a7:42:d0:c8:0a:20:7b:ee:71:ad:84:
                    ee:da:1a:6a:f0:92:f2:d3:66:a8:be:95:dd:49:cb:
                    48:4e:e6:b9:1b:8c:b6:d3:7d:74:04:79:28:4b:d4:
                    15:20:ad:c2:24:19:d8:c3:5d:43:bd:6e:95:a0:77:
                    bb:c5:15:b5:69:81:86:d5:ab:4c:cf:bc:23:ce:24:
                    f9:86:2f:79:c4:13:fc:ea:a2:ce:42:38:b3:73:d1:
                    f5:47:d9:36:79:e1:6f:8f:d7:16:e7:74:79:c7:dc:
                    4b:81:4d:2e:cb:67:18:27:91:b0:f8:24:52:74:50:
                    de:f6:9a:ac:fe:97:56:25:5e:b7:24:c0:3f:a9:8e:
                    5c:24:86:b1:82:00:78:eb:c7:49:39:dd:4b:16:db:
                    f0:87:d1:6b:63:7e:61:a2:a4:9c:df:e6:da:2d:bf:
                    47:e9:91:66:3a:d1:3d:45:7a:b1:93:93:45:c5:b3:
                    9a:39:ba:40:ff:da:ea:c2:6b:d9:70:1a:3e:30:03:
                    af:0a:0d:70:c5:3d:b5:2d:d2:57:7e:45:55:43:e4:
                    5a:f0:04:e1:04:1e:26:50:90:af:36:7b:72:92:33:
                    25:cd:5d:3e:72:e0:68:de:f0:27:18:f2:32:9a:18:
                    b5:d1:0e:b1:d1:05:f0:9f:22:d9:db:09:e0:15:97:
                    d1:c4:8a:00:e6:ae:fe:04:f9:4d:b8:cf:a5:99:d8:
                    90:e5:2e:cb:bc:76:fc:b4:5e:2e:e1:c3:22:b9:23:
                    41:48:2b:f7:57:91:24:96:57:13:b7:b1:09:0a:2f:
                    d6:55:51
                Exponent: 65537 (0x10001)
        Attributes:
        Requested Extensions:
            X509v3 Basic Constraints: 
                CA:FALSE
            X509v3 Key Usage: critical
                Certificate Sign, CRL Sign
            X509v3 Subject Alternative Name: 
                URI:undefined
    Signature Algorithm: sha256WithRSAEncryption
         16:3d:17:47:f1:9e:b0:e6:93:f4:92:57:5f:7d:1b:99:91:32:
         43:4c:4c:88:0c:1a:58:82:72:b7:ec:0b:c2:5b:43:1c:fc:86:
         45:5d:85:74:80:d0:b9:3b:0e:b4:fa:cd:01:db:bd:0e:f6:43:
         d8:f2:84:96:1a:0f:82:c2:bd:d3:7a:40:72:d9:1f:c2:b3:d9:
         d3:71:6b:9c:ba:6c:f0:b1:5b:0e:c1:09:11:7b:48:e3:14:7f:
         d3:0d:04:6b:1f:f2:04:69:b0:ee:73:8d:6d:61:9e:bf:b6:c6:
         0e:0a:63:f6:0c:9e:c8:c9:93:48:de:f3:d3:d0:d2:9c:87:93:
         f4:7e:44:8a:11:ee:9d:de:45:d4:fe:e6:ef:07:ce:eb:41:51:
         fa:0c:0d:38:27:cb:64:66:b9:6d:09:4f:f8:75:37:36:ee:88:
         14:14:2d:09:ff:d5:71:7b:f4:b9:eb:19:1e:ff:4e:6c:90:0c:
         ca:98:68:a2:27:38:5c:af:24:52:e5:d1:94:77:36:99:77:d4:
         13:17:f1:b3:10:20:19:b0:d3:33:0c:4b:8b:90:43:fc:b0:07:
         47:b0:56:ee:fa:6c:20:78:13:c8:84:db:8a:8e:ce:c0:0b:3a:
         28:26:52:e7:61:ea:42:97:9f:9b:e3:2c:42:f1:83:7e:56:97:
         68:a8:54:0b:1e:f9:26:fc:c8:ae:6f:e4:81:ee:be:b7:9d:09:
         31:7f:b6:3f:21:af:08:4a:e8:62:56:01:b6:3f:b7:b9:2b:69:
         6e:e5:8a:2f:98:5d:04:3b:8d:39:21:05:9b:c3:20:38:6b:8f:
         62:20:fc:f9:c3:2b:20:e5:4c:1e:14:83:02:f8:43:60:ec:6e:
         03:aa:0a:08:b9:b5:1f:80:01:67:bc:77:5a:8d:a2:9f:a8:b7:
         a7:bf:c3:eb:1e:6f:5e:3f:a3:29:88:a0:44:19:f1:c5:e9:77:
         ba:10:36:bd:6b:7b:64:ba:3b:88:b5:b3:f6:d7:a6:82:bd:13:
         7d:72:06:55:2e:8b:0c:14:07:c7:38:75:b4:8c:8f:60:13:27:
         01:3a:04:51:e6:eb:1e:16:57:a3:6c:a5:25:84:b0:6b:ef:ec:
         68:89:a6:35:3e:3f:46:b1:8c:8d:7c:f4:63:ea:3f:9d:b8:c9:
         3c:1d:26:8f:74:74:a0:d7:f5:5f:39:65:15:f9:0c:1b:17:4d:
         d5:1e:18:d2:6b:c0:f9:f3:86:04:89:f8:79:31:cf:57:e2:2b:
         63:a4:56:b7:39:b2:62:55:ea:af:f4:3d:8f:e5:3d:de:ea:6c:
         93:dc:92:9f:81:ec:51:3e:48:83:e4:e1:6c:8b:9b:36:b7:e4:
         b0:4e:95:80:6d:13:5b:37
-----BEGIN CERTIFICATE REQUEST-----
MIIEvDCCAqQCAQAwNTELMAkGA1UEBhMCRlIxEjAQBgNVBAoMCU5vZGVPUENVQTES
MBAGA1UEAwwJTm9kZU9QQ1VBMIICIjANBgkqhkiG9w0BAQEFAAOCAg8AMIICCgKC
AgEA4If0alBHcCE4YpVooU7Nferl6xyNp2ZN/Rl0EO7grC/Emg36Ny2/8rYdjsX/
rWBHVodRh8oJu9Xqps+FZV7bkFXUx+anhslZWNtAFbeBe80Xw392s0CitO5JTlHx
lVF0vrqUNjOSgqR4pkHjNpZ6cYzWeSRWlQ+Jq+hTJIA2XXielW5suxkaDAddT7x6
B2na8KqfUVs4kQ2bPy4gqHxvIKBCh2fR9g7y6YXswA5XzOwYvHxx+9XmdyHpB8Pf
qjFZOwoW1gGS8t/lz8ErX1HdAAPWYmObp0LQyAoge+5xrYTu2hpq8JLy02aovpXd
SctITua5G4y20310BHkoS9QVIK3CJBnYw11DvW6VoHe7xRW1aYGG1atMz7wjziT5
hi95xBP86qLOQjizc9H1R9k2eeFvj9cW53R5x9xLgU0uy2cYJ5Gw+CRSdFDe9pqs
/pdWJV63JMA/qY5cJIaxggB468dJOd1LFtvwh9FrY35hoqSc3+baLb9H6ZFmOtE9
RXqxk5NFxbOaObpA/9rqwmvZcBo+MAOvCg1wxT21LdJXfkVVQ+Ra8AThBB4mUJCv
NntykjMlzV0+cuBo3vAnGPIymhi10Q6x0QXwnyLZ2wngFZfRxIoA5q7+BPlNuM+l
mdiQ5S7LvHb8tF4u4cMiuSNBSCv3V5EkllcTt7EJCi/WVVECAwEAAaBCMEAGCSqG
SIb3DQEJDjEzMDEwCQYDVR0TBAIwADAOBgNVHQ8BAf8EBAMCAQYwFAYDVR0RBA0w
C4YJdW5kZWZpbmVkMA0GCSqGSIb3DQEBCwUAA4ICAQAWPRdH8Z6w5pP0kldffRuZ
kTJDTEyIDBpYgnK37AvCW0Mc/IZFXYV0gNC5Ow60+s0B270O9kPY8oSWGg+Cwr3T
ekBy2R/Cs9nTcWucumzwsVsOwQkRe0jjFH/TDQRrH/IEabDuc41tYZ6/tsYOCmP2
DJ7IyZNI3vPT0NKch5P0fkSKEe6d3kXU/ubvB87rQVH6DA04J8tkZrltCU/4dTc2
7ogUFC0J/9Vxe/S56xke/05skAzKmGiiJzhcryRS5dGUdzaZd9QTF/GzECAZsNMz
DEuLkEP8sAdHsFbu+mwgeBPIhNuKjs7ACzooJlLnYepCl5+b4yxC8YN+VpdoqFQL
Hvkm/Miub+SB7r63nQkxf7Y/Ia8ISuhiVgG2P7e5K2lu5YovmF0EO405IQWbwyA4
a49iIPz5wysg5UweFIMC+ENg7G4DqgoIubUfgAFnvHdajaKfqLenv8PrHm9eP6Mp
iKBEGfHF6Xe6EDa9a3tkujuItbP216aCvRN9cgZVLosMFAfHOHW0jI9gEycBOgRR
5useFlejbKUlhLBr7+xoiaY1Pj9GsYyNfPRj6j+duMk8HSaPdHSg1/VfOWUV+Qwb
F03VHhjSa8D584YEifh5Mc9X4itjpFa3ObJiVeqv9D2P5T3e6myT3JKfgexRPkiD
5OFsi5s2t+SwTpWAbRNbNw==
-----END CERTIFICATE REQUEST-----
