Certificate:
    Data:
        Version: 3 (0x2)
        Serial Number: 4106 (0x100a)
    Signature Algorithm: sha256WithRSAEncryption
        Issuer: C=FR, ST=IDF, L=Paris, O=Local NODE-OPCUA Certificate Authority, CN=NodeOPCUA-CA
        Validity
            Not Before: Apr 16 11:56:51 2018 GMT
            Not After : Apr 16 11:56:51 2019 GMT
        Subject: C=FR, O=NodeOPCUA, CN=NodeOPCUA
        Subject Public Key Info:
            Public Key Algorithm: rsaEncryption
                Public-Key: (2048 bit)
                Modulus:
                    00:be:98:cd:2e:fd:e5:44:e8:db:ae:66:18:75:a6:
                    c8:eb:94:df:7f:df:24:dd:83:1d:2f:07:e4:d2:da:
                    a7:be:e1:7c:3d:73:24:9e:f9:49:29:d6:cd:96:66:
                    e9:b8:00:43:cd:79:80:a6:ae:3a:4d:cd:9e:65:7e:
                    25:5f:e9:f2:9c:b9:81:39:62:a1:97:b1:57:28:28:
                    b6:97:97:2c:48:d0:f8:4c:2d:59:a6:8b:d8:91:60:
                    b1:0f:09:21:17:1f:d4:e3:22:ae:57:71:74:03:6b:
                    3e:b9:e7:0f:44:61:ff:33:43:2f:d3:17:96:40:61:
                    1a:01:89:c8:79:92:4e:89:33:4e:61:d8:de:97:2f:
                    98:cf:a6:9c:b3:39:8c:71:c8:9e:c0:90:5e:7e:20:
                    13:de:91:88:a2:bd:3b:50:1a:a6:e7:99:d4:3f:47:
                    1e:ed:3b:54:22:97:82:cb:cc:ff:91:b4:36:52:ad:
                    ba:1e:07:19:62:01:1f:d6:ff:df:94:78:a7:ed:eb:
                    aa:5b:ea:90:22:76:d3:e3:d5:37:75:e9:f4:ac:1d:
                    15:9f:1c:96:0d:eb:58:0b:77:5a:1c:d8:f8:ae:cd:
                    ed:38:da:d7:5a:ad:c2:e1:bd:7d:65:40:4e:ba:52:
                    cf:7c:7b:86:70:98:32:40:fa:cd:a4:38:f5:81:4e:
                    73:13
                Exponent: 65537 (0x10001)
        X509v3 extensions:
            X509v3 Basic Constraints: critical
                CA:FALSE
            X509v3 Subject Key Identifier: 
                00:C1:02:80:8B:06:7A:4D:91:C1:29:2E:B1:D7:4B:01:E2:41:9A:F6
            X509v3 Authority Key Identifier: 
                keyid:26:EE:F6:D7:C5:CE:54:CB:48:A9:8A:11:E5:93:A4:5C:4E:60:D8:BA
                DirName:/C=FR/ST=IDF/L=Paris/O=Local NODE-OPCUA Certificate Authority/CN=NodeOPCUA-CA
                serial:CE:FA:6D:B3:C5:70:1C:A9

            X509v3 Subject Alternative Name: 
                URI:urn:IPAWSDX02:NodeOPCUA-Server, DNS:localhost, DNS:IPAWSDX02
            Netscape Comment: 
                OpenSSL Generated Certificate
            X509v3 Key Usage: critical
                Digital Signature, Non Repudiation, Key Encipherment, Data Encipherment, Key Agreement, Certificate Sign
            X509v3 Extended Key Usage: critical
                TLS Web Server Authentication, TLS Web Client Authentication
    Signature Algorithm: sha256WithRSAEncryption
         82:a2:89:d0:8e:b7:b9:16:7e:ed:5b:5a:c7:5f:f0:ae:87:5c:
         67:1d:31:47:7e:db:f6:63:1e:20:19:b6:07:b6:02:56:b2:e2:
         19:8f:b1:c4:c7:f0:e8:be:d9:12:b8:5c:5b:35:f1:16:19:c6:
         f4:01:81:5b:28:90:68:dd:3e:7d:df:15:4d:ba:4c:91:0a:f0:
         e0:f5:98:fb:dc:e6:19:b8:7c:30:89:fb:70:0f:67:84:9d:42:
         18:c7:9b:59:90:61:46:b8:fb:39:94:77:db:72:38:21:2e:ce:
         de:83:3a:92:75:87:b0:ac:b2:78:c0:d5:87:e7:78:57:11:53:
         7c:15:22:c0:c2:90:7a:5c:fa:f7:9e:84:a0:49:37:93:ec:99:
         94:33:a1:b2:26:38:c4:9d:da:29:01:66:15:9a:a0:38:15:eb:
         a3:28:aa:0a:4a:0b:93:12:58:e2:fe:22:8f:39:cd:84:1a:fc:
         5e:93:8c:e2:02:d1:97:b8:2c:93:c1:ec:64:c2:1a:bb:8f:d2:
         2e:01:7b:76:60:a0:c6:19:74:45:92:8e:b9:15:85:28:db:cb:
         84:3d:db:15:cf:21:4e:1b:fa:62:7d:fa:cf:2d:bf:23:f8:6d:
         c7:7d:01:e7:e5:48:ff:ad:c3:4b:dd:be:8f:38:f0:f0:7d:8d:
         98:b5:65:9e
-----BEGIN CERTIFICATE-----
MIIEpDCCA4ygAwIBAgICEAowDQYJKoZIhvcNAQELBQAwczELMAkGA1UEBhMCRlIx
DDAKBgNVBAgTA0lERjEOMAwGA1UEBxMFUGFyaXMxLzAtBgNVBAoTJkxvY2FsIE5P
REUtT1BDVUEgQ2VydGlmaWNhdGUgQXV0aG9yaXR5MRUwEwYDVQQDEwxOb2RlT1BD
VUEtQ0EwIhgPMjAxODA0MTYxMTU2NTFaGA8yMDE5MDQxNjExNTY1MVowNTELMAkG
A1UEBhMCRlIxEjAQBgNVBAoMCU5vZGVPUENVQTESMBAGA1UEAwwJTm9kZU9QQ1VB
MIIBIjANBgkqhkiG9w0BAQEFAAOCAQ8AMIIBCgKCAQEAvpjNLv3lROjbrmYYdabI
65Tff98k3YMdLwfk0tqnvuF8PXMknvlJKdbNlmbpuABDzXmApq46Tc2eZX4lX+ny
nLmBOWKhl7FXKCi2l5csSND4TC1ZpovYkWCxDwkhFx/U4yKuV3F0A2s+uecPRGH/
M0Mv0xeWQGEaAYnIeZJOiTNOYdjely+Yz6acszmMcciewJBefiAT3pGIor07UBqm
55nUP0ce7TtUIpeCy8z/kbQ2Uq26HgcZYgEf1v/flHin7euqW+qQInbT49U3den0
rB0VnxyWDetYC3daHNj4rs3tONrXWq3C4b19ZUBOulLPfHuGcJgyQPrNpDj1gU5z
EwIDAQABo4IBejCCAXYwDAYDVR0TAQH/BAIwADAdBgNVHQ4EFgQUAMECgIsGek2R
wSkusddLAeJBmvYwgaUGA1UdIwSBnTCBmoAUJu7218XOVMtIqYoR5ZOkXE5g2Lqh
d6R1MHMxCzAJBgNVBAYTAkZSMQwwCgYDVQQIEwNJREYxDjAMBgNVBAcTBVBhcmlz
MS8wLQYDVQQKEyZMb2NhbCBOT0RFLU9QQ1VBIENlcnRpZmljYXRlIEF1dGhvcml0
eTEVMBMGA1UEAxMMTm9kZU9QQ1VBLUNBggkAzvpts8VwHKkwPwYDVR0RBDgwNoYe
dXJuOklQQVdTRFgwMjpOb2RlT1BDVUEtU2VydmVygglsb2NhbGhvc3SCCUlQQVdT
RFgwMjAsBglghkgBhvhCAQ0EHxYdT3BlblNTTCBHZW5lcmF0ZWQgQ2VydGlmaWNh
dGUwDgYDVR0PAQH/BAQDAgL8MCAGA1UdJQEB/wQWMBQGCCsGAQUFBwMBBggrBgEF
BQcDAjANBgkqhkiG9w0BAQsFAAOCAQEAgqKJ0I63uRZ+7Vtax1/wrodcZx0xR37b
9mMeIBm2B7YCVrLiGY+xxMfw6L7ZErhcWzXxFhnG9AGBWyiQaN0+fd8VTbpMkQrw
4PWY+9zmGbh8MIn7cA9nhJ1CGMebWZBhRrj7OZR323I4IS7O3oM6knWHsKyyeMDV
h+d4VxFTfBUiwMKQelz6956EoEk3k+yZlDOhsiY4xJ3aKQFmFZqgOBXroyiqCkoL
kxJY4v4ijznNhBr8XpOM4gLRl7gsk8HsZMIau4/SLgF7dmCgxhl0RZKOuRWFKNvL
hD3bFc8hThv6Yn36zy2/I/htx30B5+VI/63DS92+jzjw8H2NmLVlng==
-----END CERTIFICATE-----
-----BEGIN CERTIFICATE-----
MIIE3TCCA8WgAwIBAgIJAM76bbPFcBypMA0GCSqGSIb3DQEBCwUAMHMxCzAJBgNV
BAYTAkZSMQwwCgYDVQQIEwNJREYxDjAMBgNVBAcTBVBhcmlzMS8wLQYDVQQKEyZM
b2NhbCBOT0RFLU9QQ1VBIENlcnRpZmljYXRlIEF1dGhvcml0eTEVMBMGA1UEAxMM
Tm9kZU9QQ1VBLUNBMB4XDTE4MDQxNzExNTY1NVoXDTI4MDQxNDExNTY1NVowczEL
MAkGA1UEBhMCRlIxDDAKBgNVBAgTA0lERjEOMAwGA1UEBxMFUGFyaXMxLzAtBgNV
BAoTJkxvY2FsIE5PREUtT1BDVUEgQ2VydGlmaWNhdGUgQXV0aG9yaXR5MRUwEwYD
VQQDEwxOb2RlT1BDVUEtQ0EwggEiMA0GCSqGSIb3DQEBAQUAA4IBDwAwggEKAoIB
AQDHcdR6F9shB6JlNFxzfUeMekz4D+fdxE1n78T0Tb2OKVQjRaLV7JOPVKgSRIhm
7pk8/7gnUXGf8H4y9cbp96a0nUdVqmrPouWi/DcIl37wVs5TSLFwejmz9qTDpQlB
A5JRCVgyQ2pKuuA+kMvdl4/vanUlCFQkOageqi0ecgmDvDdDtPkMbDtknXUfOVs/
1PnZ0SO4m+q6AA67dbFXtvWtUo4SLz2sRrclQNpPcFb1q2FkR1/0zNjstDhiE7e/
oh3avrMIsP09XPXjZlMfqgkN/WacL5ticw7oRiR8MaYTG219cut8mfdytDHTpbq5
FD+Rz+orEBjtR3udKivhL1tBAgMBAAGjggFyMIIBbjAdBgNVHQ4EFgQUJu7218XO
VMtIqYoR5ZOkXE5g2LowgaUGA1UdIwSBnTCBmoAUJu7218XOVMtIqYoR5ZOkXE5g
2Lqhd6R1MHMxCzAJBgNVBAYTAkZSMQwwCgYDVQQIEwNJREYxDjAMBgNVBAcTBVBh
cmlzMS8wLQYDVQQKEyZMb2NhbCBOT0RFLU9QQ1VBIENlcnRpZmljYXRlIEF1dGhv
cml0eTEVMBMGA1UEAxMMTm9kZU9QQ1VBLUNBggkAzvpts8VwHKkwDAYDVR0TBAUw
AwEB/zAOBgNVHQ8BAf8EBAMCAQYwVwYJYIZIAYb4QgENBEoWSENBIENlcnRpZmlj
YXRlIGdlbmVyYXRlZCBieSBOb2RlLU9QQ1VBIENlcnRpZmljYXRlIHV0aWxpdHkg
dXNpbmcgb3BlbnNzbDAuBgNVHR8EJzAlMCOgIaAfhh1odHRwOi8vbG9jYWxob3N0
Ojg5MDAvY3JsLnBlbTANBgkqhkiG9w0BAQsFAAOCAQEAGu2gGgwrTGKBruBiUjBu
1zsa1F+QMDZoYCAlFTiDJ9WqL8XMuPND1c3cnJOv7LFLKFpxnbXPfHDPZXPaFimO
q4PziPPNRf7JQDZk5ML8NRUiojpm/n2vuPlmMN4hS77CpOM1ZLt6WcavJ2Y/QGY3
K8Qjw3jDp/O7JYN4stIbiTbdghcJdfOGtnNDRlyw2Z0WeWwzEQ0ttnSKdlYlNR3n
G2RbzSPIW7Zdn61vVPX2kZc0oFvaahPkQiilN1KHBDnH3L4BWDgteNzJj8gjlhBP
VKvUmx1JfS7JBhmFPYF3lN2d90zE7zioFyj1NPyawbZq8jx0CiHb00L+5wzfY9Nq
FQ==
-----END CERTIFICATE-----
