Certificate Request:
    Data:
        Version: 0 (0x0)
        Subject: C=FR, ST=IDF, L=Paris, O=Local NODE-OPCUA Certificate Authority, CN=NodeOPCUA-CA
        Subject Public Key Info:
            Public Key Algorithm: rsaEncryption
                Public-Key: (2048 bit)
                Modulus:
                    00:c7:71:d4:7a:17:db:21:07:a2:65:34:5c:73:7d:
                    47:8c:7a:4c:f8:0f:e7:dd:c4:4d:67:ef:c4:f4:4d:
                    bd:8e:29:54:23:45:a2:d5:ec:93:8f:54:a8:12:44:
                    88:66:ee:99:3c:ff:b8:27:51:71:9f:f0:7e:32:f5:
                    c6:e9:f7:a6:b4:9d:47:55:aa:6a:cf:a2:e5:a2:fc:
                    37:08:97:7e:f0:56:ce:53:48:b1:70:7a:39:b3:f6:
                    a4:c3:a5:09:41:03:92:51:09:58:32:43:6a:4a:ba:
                    e0:3e:90:cb:dd:97:8f:ef:6a:75:25:08:54:24:39:
                    a8:1e:aa:2d:1e:72:09:83:bc:37:43:b4:f9:0c:6c:
                    3b:64:9d:75:1f:39:5b:3f:d4:f9:d9:d1:23:b8:9b:
                    ea:ba:00:0e:bb:75:b1:57:b6:f5:ad:52:8e:12:2f:
                    3d:ac:46:b7:25:40:da:4f:70:56:f5:ab:61:64:47:
                    5f:f4:cc:d8:ec:b4:38:62:13:b7:bf:a2:1d:da:be:
                    b3:08:b0:fd:3d:5c:f5:e3:66:53:1f:aa:09:0d:fd:
                    66:9c:2f:9b:62:73:0e:e8:46:24:7c:31:a6:13:1b:
                    6d:7d:72:eb:7c:99:f7:72:b4:31:d3:a5:ba:b9:14:
                    3f:91:cf:ea:2b:10:18:ed:47:7b:9d:2a:2b:e1:2f:
                    5b:41
                Exponent: 65537 (0x10001)
        Attributes:
        Requested Extensions:
            X509v3 Basic Constraints: critical
                CA:FALSE
            X509v3 Key Usage: 
                Digital Signature, Non Repudiation, Key Encipherment, Data Encipherment, Key Agreement
            X509v3 Subject Alternative Name: 
                URI:undefined
            Netscape Comment: 
                CA Generated by Node-OPCUA Certificate utility using openssl
    Signature Algorithm: sha256WithRSAEncryption
         66:b5:07:65:75:e7:84:ab:a0:96:e8:f4:01:32:be:2c:38:3c:
         74:33:6c:a7:87:42:be:3b:a4:a0:87:e5:dd:29:9e:0d:f2:9d:
         09:3b:bd:e5:29:f2:d7:14:c9:8f:72:c2:42:35:74:f4:e2:4b:
         8d:6b:f3:c1:e4:f6:09:3d:46:9d:f9:c5:8c:f9:47:b8:95:18:
         ba:cb:02:d5:e9:20:61:81:e8:12:d8:a4:bb:08:e3:6b:71:cf:
         4b:ff:70:42:0c:d4:04:19:c5:e5:a8:64:8b:9e:cc:a2:fe:e6:
         e3:1f:1a:a3:f6:ed:b2:ed:22:d2:db:ac:0e:19:06:91:23:52:
         25:82:11:ef:6d:58:25:01:90:e0:0a:76:a2:48:0e:fd:6c:42:
         cf:9b:51:b7:78:9b:f9:ad:f9:07:29:88:78:33:91:94:41:1f:
         3d:71:6f:14:37:2c:d0:fe:ac:22:ed:02:81:16:81:4d:c4:f6:
         c0:98:fe:a7:f3:05:a8:3f:63:0f:56:17:c9:ba:19:22:0b:90:
         c9:d6:06:61:75:94:3a:f2:7e:05:a1:06:9c:53:17:f4:bb:3d:
         3d:c8:dc:32:da:ae:a9:c9:f1:e8:97:d6:c4:bb:45:1d:7f:fb:
         38:92:c4:27:3e:89:25:20:80:a7:26:a2:3b:a7:96:3c:26:17:
         09:b3:4a:c8
-----BEGIN CERTIFICATE REQUEST-----
MIIDSjCCAjICAQAwczELMAkGA1UEBhMCRlIxDDAKBgNVBAgTA0lERjEOMAwGA1UE
BxMFUGFyaXMxLzAtBgNVBAoTJkxvY2FsIE5PREUtT1BDVUEgQ2VydGlmaWNhdGUg
QXV0aG9yaXR5MRUwEwYDVQQDEwxOb2RlT1BDVUEtQ0EwggEiMA0GCSqGSIb3DQEB
AQUAA4IBDwAwggEKAoIBAQDHcdR6F9shB6JlNFxzfUeMekz4D+fdxE1n78T0Tb2O
KVQjRaLV7JOPVKgSRIhm7pk8/7gnUXGf8H4y9cbp96a0nUdVqmrPouWi/DcIl37w
Vs5TSLFwejmz9qTDpQlBA5JRCVgyQ2pKuuA+kMvdl4/vanUlCFQkOageqi0ecgmD
vDdDtPkMbDtknXUfOVs/1PnZ0SO4m+q6AA67dbFXtvWtUo4SLz2sRrclQNpPcFb1
q2FkR1/0zNjstDhiE7e/oh3avrMIsP09XPXjZlMfqgkN/WacL5ticw7oRiR8MaYT
G219cut8mfdytDHTpbq5FD+Rz+orEBjtR3udKivhL1tBAgMBAAGggZEwgY4GCSqG
SIb3DQEJDjGBgDB+MAwGA1UdEwEB/wQCMAAwCwYDVR0PBAQDAgP4MBQGA1UdEQQN
MAuGCXVuZGVmaW5lZDBLBglghkgBhvhCAQ0EPhY8Q0EgR2VuZXJhdGVkIGJ5IE5v
ZGUtT1BDVUEgQ2VydGlmaWNhdGUgdXRpbGl0eSB1c2luZyBvcGVuc3NsMA0GCSqG
SIb3DQEBCwUAA4IBAQBmtQdldeeEq6CW6PQBMr4sODx0M2ynh0K+O6Sgh+XdKZ4N
8p0JO73lKfLXFMmPcsJCNXT04kuNa/PB5PYJPUad+cWM+Ue4lRi6ywLV6SBhgegS
2KS7CONrcc9L/3BCDNQEGcXlqGSLnsyi/ubjHxqj9u2y7SLS26wOGQaRI1IlghHv
bVglAZDgCnaiSA79bELPm1G3eJv5rfkHKYh4M5GUQR89cW8UNyzQ/qwi7QKBFoFN
xPbAmP6n8wWoP2MPVhfJuhkiC5DJ1gZhdZQ68n4FoQacUxf0uz09yNwy2q6pyfHo
l9bEu0Udf/s4ksQnPoklIICnJqI7p5Y8JhcJs0rI
-----END CERTIFICATE REQUEST-----
