Certificate:
    Data:
        Version: 3 (0x2)
        Serial Number: 4096 (0x1000)
    Signature Algorithm: sha256WithRSAEncryption
        Issuer: C=FR, ST=IDF, L=Paris, O=Local NODE-OPCUA Certificate Authority, CN=NodeOPCUA-CA
        Validity
            Not Before: Apr 16 11:56:51 2018 GMT
            Not After : Apr 16 11:56:51 2019 GMT
        Subject: C=FR, O=NodeOPCUA, CN=NodeOPCUA
        Subject Public Key Info:
            Public Key Algorithm: rsaEncryption
                Public-Key: (1024 bit)
                Modulus:
                    00:c0:a7:bf:86:da:26:68:fa:60:55:f5:38:0c:2f:
                    e7:f8:bd:3a:94:27:81:3b:53:64:46:aa:e0:b4:29:
                    41:5c:3e:92:f2:3a:4b:ae:f9:22:dc:0b:89:19:56:
                    ec:eb:69:1b:8b:60:43:f8:c9:bc:0f:5e:68:aa:51:
                    46:b9:47:00:41:c7:da:39:e2:87:93:c5:1a:4a:32:
                    b0:4a:80:bd:d0:fb:ce:6d:6e:d4:14:52:e9:0d:f8:
                    18:80:ba:1f:24:11:53:24:a7:80:13:1d:03:fb:a7:
                    6a:5f:28:4a:cf:c2:7f:22:d2:90:d6:69:82:f9:9a:
                    53:90:b5:b3:c4:71:23:0f:1b
                Exponent: 65537 (0x10001)
        X509v3 extensions:
            X509v3 Basic Constraints: critical
                CA:FALSE
            X509v3 Subject Key Identifier: 
                40:89:A1:EE:64:B6:25:3B:82:92:AB:D8:EE:E3:25:4A:08:A2:46:E1
            X509v3 Authority Key Identifier: 
                keyid:26:EE:F6:D7:C5:CE:54:CB:48:A9:8A:11:E5:93:A4:5C:4E:60:D8:BA
                DirName:/C=FR/ST=IDF/L=Paris/O=Local NODE-OPCUA Certificate Authority/CN=NodeOPCUA-CA
                serial:CE:FA:6D:B3:C5:70:1C:A9

            X509v3 Subject Alternative Name: 
                URI:urn:IPAWSDX02:NodeOPCUA-Client, DNS:localhost, DNS:IPAWSDX02
            Netscape Comment: 
                OpenSSL Generated Certificate
            X509v3 Key Usage: critical
                Digital Signature, Non Repudiation, Key Encipherment, Data Encipherment, Key Agreement, Certificate Sign
            X509v3 Extended Key Usage: critical
                TLS Web Server Authentication, TLS Web Client Authentication
    Signature Algorithm: sha256WithRSAEncryption
         3d:e5:d6:12:46:e4:9a:51:17:71:33:95:e0:06:82:d0:92:3f:
         df:0e:04:b5:c5:e1:4e:39:5c:c3:ba:5e:67:95:b7:a2:0e:72:
         92:95:8a:aa:b7:35:ba:e1:09:76:f4:5b:4a:b3:6e:ea:46:a8:
         ed:97:fd:d8:d6:2e:af:b0:81:68:03:a2:da:92:40:13:d5:8c:
         86:65:29:4f:9c:63:49:84:0e:5d:b7:67:b6:92:d5:77:80:ca:
         2f:65:a2:1b:49:0e:bb:23:ea:0b:7c:a8:08:2c:76:e4:50:61:
         1a:c8:3b:a3:35:d3:9d:b7:5b:f8:07:72:57:6d:57:1d:e0:03:
         c9:de:7c:fe:a1:73:ca:67:7c:78:5c:98:b5:e6:08:95:4d:78:
         99:66:7a:14:07:6b:c6:8f:23:ed:19:74:09:87:c5:91:77:ed:
         aa:e0:61:67:59:5a:26:14:af:3a:99:a3:f5:7a:9b:6b:41:6c:
         ed:9f:b7:65:96:a5:00:b0:23:75:2b:25:cc:d6:ea:7e:da:19:
         b5:c6:06:d1:4f:1a:1d:98:45:b6:fc:c1:49:11:3a:cd:a1:1e:
         4d:23:b2:33:42:f0:03:25:6a:43:1c:d4:5e:88:b8:87:62:6d:
         6d:50:ab:e5:d1:54:9b:36:00:b4:1b:8e:bd:27:f6:6a:16:94:
         0d:db:0f:e4
-----BEGIN CERTIFICATE-----
MIIEIDCCAwigAwIBAgICEAAwDQYJKoZIhvcNAQELBQAwczELMAkGA1UEBhMCRlIx
DDAKBgNVBAgTA0lERjEOMAwGA1UEBxMFUGFyaXMxLzAtBgNVBAoTJkxvY2FsIE5P
REUtT1BDVUEgQ2VydGlmaWNhdGUgQXV0aG9yaXR5MRUwEwYDVQQDEwxOb2RlT1BD
VUEtQ0EwIhgPMjAxODA0MTYxMTU2NTFaGA8yMDE5MDQxNjExNTY1MVowNTELMAkG
A1UEBhMCRlIxEjAQBgNVBAoMCU5vZGVPUENVQTESMBAGA1UEAwwJTm9kZU9QQ1VB
MIGfMA0GCSqGSIb3DQEBAQUAA4GNADCBiQKBgQDAp7+G2iZo+mBV9TgML+f4vTqU
J4E7U2RGquC0KUFcPpLyOkuu+SLcC4kZVuzraRuLYEP4ybwPXmiqUUa5RwBBx9o5
4oeTxRpKMrBKgL3Q+85tbtQUUukN+BiAuh8kEVMkp4ATHQP7p2pfKErPwn8i0pDW
aYL5mlOQtbPEcSMPGwIDAQABo4IBejCCAXYwDAYDVR0TAQH/BAIwADAdBgNVHQ4E
FgQUQImh7mS2JTuCkqvY7uMlSgiiRuEwgaUGA1UdIwSBnTCBmoAUJu7218XOVMtI
qYoR5ZOkXE5g2Lqhd6R1MHMxCzAJBgNVBAYTAkZSMQwwCgYDVQQIEwNJREYxDjAM
BgNVBAcTBVBhcmlzMS8wLQYDVQQKEyZMb2NhbCBOT0RFLU9QQ1VBIENlcnRpZmlj
YXRlIEF1dGhvcml0eTEVMBMGA1UEAxMMTm9kZU9QQ1VBLUNBggkAzvpts8VwHKkw
PwYDVR0RBDgwNoYedXJuOklQQVdTRFgwMjpOb2RlT1BDVUEtQ2xpZW50gglsb2Nh
bGhvc3SCCUlQQVdTRFgwMjAsBglghkgBhvhCAQ0EHxYdT3BlblNTTCBHZW5lcmF0
ZWQgQ2VydGlmaWNhdGUwDgYDVR0PAQH/BAQDAgL8MCAGA1UdJQEB/wQWMBQGCCsG
AQUFBwMBBggrBgEFBQcDAjANBgkqhkiG9w0BAQsFAAOCAQEAPeXWEkbkmlEXcTOV
4AaC0JI/3w4EtcXhTjlcw7peZ5W3og5ykpWKqrc1uuEJdvRbSrNu6kao7Zf92NYu
r7CBaAOi2pJAE9WMhmUpT5xjSYQOXbdntpLVd4DKL2WiG0kOuyPqC3yoCCx25FBh
Gsg7ozXTnbdb+AdyV21XHeADyd58/qFzymd8eFyYteYIlU14mWZ6FAdrxo8j7Rl0
CYfFkXftquBhZ1laJhSvOpmj9Xqba0Fs7Z+3ZZalALAjdSslzNbqftoZtcYG0U8a
HZhFtvzBSRE6zaEeTSOyM0LwAyVqQxzUXoi4h2JtbVCr5dFUmzYAtBuOvSf2ahaU
DdsP5A==
-----END CERTIFICATE-----
