Certificate:
    Data:
        Version: 3 (0x2)
        Serial Number: 4099 (0x1003)
    Signature Algorithm: sha256WithRSAEncryption
        Issuer: O=NodeOPCUA, CN=NodeOPCUA
        Validity
            Not Before: Apr 16 11:56:51 2018 GMT
            Not After : Apr 16 11:56:51 2019 GMT
        Subject: O=NodeOPCUA, CN=NodeOPCUA
        Subject Public Key Info:
            Public Key Algorithm: rsaEncryption
                Public-Key: (2048 bit)
                Modulus:
                    00:ec:82:31:8c:ea:4a:0e:42:8e:bd:00:d4:39:4c:
                    0c:e8:89:25:b3:ff:20:45:37:f0:89:ce:4f:a5:67:
                    cd:58:10:07:01:c0:d5:21:77:03:ec:54:64:f4:ef:
                    40:15:b7:52:9a:69:e8:e3:6b:ca:26:f1:93:b1:64:
                    61:7c:51:e1:95:46:7d:04:cf:45:79:60:e2:36:4c:
                    89:a5:85:b5:c0:28:45:9b:06:65:e9:8e:15:c3:cc:
                    4b:13:85:99:31:19:a6:95:32:54:ae:80:04:da:f6:
                    6a:b1:79:10:73:02:99:58:60:f5:cc:cf:55:2b:02:
                    cc:bd:98:0a:bf:e4:43:98:5b:16:ec:36:2c:88:61:
                    ad:63:99:39:1c:c2:50:59:1e:db:de:b6:1e:9d:06:
                    10:1d:ea:f8:1d:f0:21:4f:07:03:fa:f3:10:85:d3:
                    31:08:cc:ba:82:03:b6:9e:76:66:a9:4c:ae:ff:33:
                    83:b4:cd:8e:be:49:36:f3:ae:5e:23:6e:cf:88:3b:
                    4e:c4:62:64:8d:7a:ba:9a:20:0c:80:8c:e9:cd:66:
                    f1:9c:a7:c4:22:fe:c0:fa:4b:a6:bd:81:ee:8f:3b:
                    d2:8f:12:dd:aa:d4:bf:a6:28:5d:61:73:9c:ca:39:
                    d4:1e:a9:fc:02:4a:47:12:61:26:28:b2:cb:b2:0f:
                    7e:53
                Exponent: 65537 (0x10001)
        X509v3 extensions:
            X509v3 Basic Constraints: critical
                CA:FALSE
            X509v3 Subject Key Identifier: 
                99:0F:03:A6:7F:E6:FD:B5:51:29:3E:FB:1A:0D:A2:33:9B:1A:5C:3B
            X509v3 Authority Key Identifier: 
                keyid:99:0F:03:A6:7F:E6:FD:B5:51:29:3E:FB:1A:0D:A2:33:9B:1A:5C:3B
                DirName:/O=NodeOPCUA/CN=NodeOPCUA
                serial:10:03

            X509v3 Subject Alternative Name: 
                URI:urn:IPAWSDX02:NodeOPCUA-Client, DNS:localhost, DNS:IPAWSDX02
            Netscape Comment: 
                OpenSSL Generated Certificate
            X509v3 Key Usage: critical
                Digital Signature, Non Repudiation, Key Encipherment, Data Encipherment, Key Agreement, Certificate Sign
            X509v3 Extended Key Usage: critical
                TLS Web Server Authentication, TLS Web Client Authentication
    Signature Algorithm: sha256WithRSAEncryption
         b0:1a:e1:ab:03:6c:ca:7b:96:34:fc:44:cf:ed:5e:df:72:41:
         e9:1d:c5:56:a5:86:40:4b:0c:21:29:ba:c7:1d:8d:76:4f:21:
         e1:95:7b:ba:6b:20:86:fa:af:c2:5d:71:3c:f3:f5:7f:58:94:
         c3:d6:02:57:0e:ba:e6:40:2b:04:46:2d:1f:ee:7b:54:68:34:
         b5:33:4c:32:f7:55:51:bd:48:1d:97:32:c1:43:6c:30:15:f3:
         0a:66:76:93:4c:7a:6f:ef:4b:bb:76:88:34:f1:47:e3:ab:c9:
         ed:fc:b5:9d:d9:c8:87:38:4a:f6:d7:24:29:65:76:85:a2:a7:
         f2:99:28:d1:eb:32:dc:81:27:86:b3:67:ca:43:58:9b:ea:5d:
         99:6d:fa:a5:de:25:76:9e:b0:a2:50:6a:f3:4b:cb:3a:bc:68:
         7d:1e:a2:77:67:c6:e7:e8:b9:6f:89:89:8c:fe:33:f0:c8:7d:
         db:37:d8:65:79:78:91:64:07:c0:57:e4:f8:53:71:28:d6:d4:
         94:c4:45:76:f8:aa:52:20:93:7c:7b:bc:08:3a:49:d1:74:fd:
         2b:a1:5b:7d:01:6b:6d:fa:22:1b:f9:ae:39:6d:9b:3c:07:86:
         7e:5e:d8:a7:ab:97:74:4a:29:1a:a3:75:20:4b:ad:c4:f7:f4:
         60:26:50:e6
-----BEGIN CERTIFICATE-----
MIID9zCCAt+gAwIBAgICEAMwDQYJKoZIhvcNAQELBQAwKDESMBAGA1UEChMJTm9k
ZU9QQ1VBMRIwEAYDVQQDEwlOb2RlT1BDVUEwIhgPMjAxODA0MTYxMTU2NTFaGA8y
MDE5MDQxNjExNTY1MVowKDESMBAGA1UEChMJTm9kZU9QQ1VBMRIwEAYDVQQDEwlO
b2RlT1BDVUEwggEiMA0GCSqGSIb3DQEBAQUAA4IBDwAwggEKAoIBAQDsgjGM6koO
Qo69ANQ5TAzoiSWz/yBFN/CJzk+lZ81YEAcBwNUhdwPsVGT070AVt1Kaaejja8om
8ZOxZGF8UeGVRn0Ez0V5YOI2TImlhbXAKEWbBmXpjhXDzEsThZkxGaaVMlSugATa
9mqxeRBzAplYYPXMz1UrAsy9mAq/5EOYWxbsNiyIYa1jmTkcwlBZHtveth6dBhAd
6vgd8CFPBwP68xCF0zEIzLqCA7aedmapTK7/M4O0zY6+STbzrl4jbs+IO07EYmSN
erqaIAyAjOnNZvGcp8Qi/sD6S6a9ge6PO9KPEt2q1L+mKF1hc5zKOdQeqfwCSkcS
YSYossuyD35TAgMBAAGjggElMIIBITAMBgNVHRMBAf8EAjAAMB0GA1UdDgQWBBSZ
DwOmf+b9tVEpPvsaDaIzmxpcOzBRBgNVHSMESjBIgBSZDwOmf+b9tVEpPvsaDaIz
mxpcO6EspCowKDESMBAGA1UEChMJTm9kZU9QQ1VBMRIwEAYDVQQDEwlOb2RlT1BD
VUGCAhADMD8GA1UdEQQ4MDaGHnVybjpJUEFXU0RYMDI6Tm9kZU9QQ1VBLUNsaWVu
dIIJbG9jYWxob3N0gglJUEFXU0RYMDIwLAYJYIZIAYb4QgENBB8WHU9wZW5TU0wg
R2VuZXJhdGVkIENlcnRpZmljYXRlMA4GA1UdDwEB/wQEAwIC/DAgBgNVHSUBAf8E
FjAUBggrBgEFBQcDAQYIKwYBBQUHAwIwDQYJKoZIhvcNAQELBQADggEBALAa4asD
bMp7ljT8RM/tXt9yQekdxValhkBLDCEpuscdjXZPIeGVe7prIIb6r8JdcTzz9X9Y
lMPWAlcOuuZAKwRGLR/ue1RoNLUzTDL3VVG9SB2XMsFDbDAV8wpmdpNMem/vS7t2
iDTxR+Orye38tZ3ZyIc4SvbXJClldoWip/KZKNHrMtyBJ4azZ8pDWJvqXZlt+qXe
JXaesKJQavNLyzq8aH0eondnxufouW+JiYz+M/DIfds32GV5eJFkB8BX5PhTcSjW
1JTERXb4qlIgk3x7vAg6SdF0/SuhW30Ba236Ihv5rjltmzwHhn5e2Kerl3RKKRqj
dSBLrcT39GAmUOY=
-----END CERTIFICATE-----
