Certificate:
    Data:
        Version: 3 (0x2)
        Serial Number: 4102 (0x1006)
    Signature Algorithm: sha256WithRSAEncryption
        Issuer: C=FR, ST=IDF, L=Paris, O=Local NODE-OPCUA Certificate Authority, CN=NodeOPCUA-CA
        Validity
            Not Before: Apr 16 11:56:51 2018 GMT
            Not After : Apr 16 11:56:51 2019 GMT
        Subject: C=FR, O=NodeOPCUA, CN=NodeOPCUA
        Subject Public Key Info:
            Public Key Algorithm: rsaEncryption
                Public-Key: (4096 bit)
                Modulus:
                    00:db:86:db:7f:78:8f:4f:64:04:51:e3:33:a4:55:
                    0a:a7:0d:c1:4f:66:b5:4d:ae:08:43:4d:3a:8d:a7:
                    d0:4f:46:ec:8a:06:d9:c5:15:61:a5:06:a9:63:3d:
                    12:9c:41:70:d9:ff:61:b2:8b:0d:83:8d:83:a7:07:
                    58:eb:28:bf:bd:30:44:5e:8c:01:f1:36:aa:0e:0b:
                    93:1b:ad:7a:0c:02:a9:c1:c1:0a:61:52:94:c4:3c:
                    b0:db:a2:2d:e9:8f:6a:61:a4:e1:9b:c4:37:43:63:
                    70:27:a2:ef:c4:ee:d3:23:d5:29:4b:d6:18:5e:b8:
                    13:d2:0f:99:b6:e1:24:1b:d5:51:aa:70:5a:5b:df:
                    53:df:d5:88:3b:db:dd:2d:61:38:1f:d1:ad:3e:e6:
                    f7:15:e3:53:be:d8:53:95:cb:43:74:98:6f:9f:2f:
                    1b:2f:6d:62:31:17:4b:35:26:c7:aa:b9:79:05:46:
                    6a:5c:47:2e:36:88:23:5e:73:93:bd:fe:88:50:94:
                    9f:d2:93:98:66:40:4b:f9:c4:a4:31:61:7a:4d:13:
                    cf:07:93:0c:d0:b7:a0:60:56:b3:09:5e:4a:af:5e:
                    42:d9:28:28:66:74:6a:f9:a0:e4:d3:3e:62:5a:77:
                    4b:f6:f5:4d:e7:8e:f8:be:27:6a:50:05:62:23:76:
                    3c:63:01:9a:95:d8:f3:f6:95:aa:ff:e3:8c:89:c6:
                    c9:37:c1:07:04:64:4c:5e:d5:9b:1f:d4:c5:1c:46:
                    7c:b8:e9:c4:84:ee:9e:ec:94:c4:e3:df:9e:3d:ae:
                    81:c3:0c:d1:90:63:b2:d1:18:02:a0:a1:a5:5e:24:
                    cb:10:c2:c5:01:26:fc:55:5b:ca:f8:86:4e:e6:92:
                    61:60:c1:d4:a3:39:a3:ca:fd:ae:83:82:c7:c6:37:
                    67:85:16:d7:94:80:04:6c:d8:36:7f:a5:d9:50:e4:
                    8e:a2:51:fc:0a:de:25:4c:fc:07:cc:11:35:fa:72:
                    6d:3f:f5:80:8c:3e:f6:48:ab:b8:e7:d8:67:1d:d4:
                    c8:0c:28:84:90:e8:9b:6b:04:c3:43:9b:30:a1:fb:
                    59:11:4a:2f:9e:fc:34:05:ec:0c:6e:74:4a:83:12:
                    92:42:a6:16:e1:0f:d3:6b:a6:cc:45:82:50:9e:74:
                    c1:88:d1:e3:72:04:11:90:11:2d:19:57:c1:81:9e:
                    4e:9d:6a:da:37:54:a9:e0:f3:89:29:b7:cd:b7:03:
                    7a:cc:bf:3a:e6:e6:4c:6f:f6:c7:30:b2:08:59:1f:
                    5f:77:7e:28:41:04:c1:3f:0c:34:e6:ea:4a:9a:bc:
                    7f:9e:97:eb:41:a2:5a:f2:9b:1b:de:e5:88:c4:85:
                    9e:61:c3
                Exponent: 65537 (0x10001)
        X509v3 extensions:
            X509v3 Basic Constraints: critical
                CA:FALSE
            X509v3 Subject Key Identifier: 
                6B:1B:06:58:98:BB:66:7C:12:AE:6E:B2:8F:A1:0D:11:E2:A2:24:37
            X509v3 Authority Key Identifier: 
                keyid:26:EE:F6:D7:C5:CE:54:CB:48:A9:8A:11:E5:93:A4:5C:4E:60:D8:BA
                DirName:/C=FR/ST=IDF/L=Paris/O=Local NODE-OPCUA Certificate Authority/CN=NodeOPCUA-CA
                serial:CE:FA:6D:B3:C5:70:1C:A9

            X509v3 Subject Alternative Name: 
                URI:urn:IPAWSDX02:NodeOPCUA-Client, DNS:localhost, DNS:IPAWSDX02
            Netscape Comment: 
                OpenSSL Generated Certificate
            X509v3 Key Usage: critical
                Digital Signature, Non Repudiation, Key Encipherment, Data Encipherment, Key Agreement, Certificate Sign
            X509v3 Extended Key Usage: critical
                TLS Web Server Authentication, TLS Web Client Authentication
    Signature Algorithm: sha256WithRSAEncryption
         3f:67:67:47:7a:54:ac:4d:5b:35:56:f1:26:bf:90:84:ad:55:
         59:23:61:0b:97:73:4f:b5:5a:9f:1c:17:bd:ac:7a:6d:70:00:
         e3:ef:6e:a4:a3:47:d3:9c:04:bf:b4:18:ad:3b:f9:53:ad:1d:
         53:d4:eb:0a:1f:c1:fb:8a:4e:b0:09:5a:d2:04:07:04:0c:db:
         4b:b7:bb:39:0d:67:fc:b6:96:7a:22:6d:fc:d3:0a:71:72:36:
         14:e4:80:22:3b:f7:65:cb:7c:2b:93:6e:f1:ce:2b:b0:89:fb:
         74:08:64:5e:04:6f:54:9b:34:41:26:22:42:a7:6b:33:42:0d:
         96:ce:98:ac:ed:9d:b0:c8:09:5b:d1:a7:1c:be:d5:80:82:ee:
         d3:9b:2e:1e:82:e1:8b:d0:71:8a:c3:86:d9:ae:34:57:88:42:
         4a:25:30:ef:32:d1:42:bd:9f:ce:8b:2a:83:9d:d0:63:54:75:
         e3:68:96:42:eb:d3:e4:72:20:54:f1:77:0c:a5:9a:a9:f3:a2:
         18:bc:d1:b6:ac:28:ed:9b:6e:13:6d:f2:61:8a:30:5f:03:08:
         cb:3d:de:a1:fb:03:0f:bf:f3:8c:2b:5d:8b:97:0f:e9:92:08:
         fd:60:4c:8a:6d:cb:58:2f:4b:00:f4:e8:94:eb:95:3d:5d:61:
         1c:4c:be:2f
-----BEGIN CERTIFICATE-----
MIIFpDCCBIygAwIBAgICEAYwDQYJKoZIhvcNAQELBQAwczELMAkGA1UEBhMCRlIx
DDAKBgNVBAgTA0lERjEOMAwGA1UEBxMFUGFyaXMxLzAtBgNVBAoTJkxvY2FsIE5P
REUtT1BDVUEgQ2VydGlmaWNhdGUgQXV0aG9yaXR5MRUwEwYDVQQDEwxOb2RlT1BD
VUEtQ0EwIhgPMjAxODA0MTYxMTU2NTFaGA8yMDE5MDQxNjExNTY1MVowNTELMAkG
A1UEBhMCRlIxEjAQBgNVBAoMCU5vZGVPUENVQTESMBAGA1UEAwwJTm9kZU9QQ1VB
MIICIjANBgkqhkiG9w0BAQEFAAOCAg8AMIICCgKCAgEA24bbf3iPT2QEUeMzpFUK
pw3BT2a1Ta4IQ006jafQT0bsigbZxRVhpQapYz0SnEFw2f9hsosNg42DpwdY6yi/
vTBEXowB8TaqDguTG616DAKpwcEKYVKUxDyw26It6Y9qYaThm8Q3Q2NwJ6LvxO7T
I9UpS9YYXrgT0g+ZtuEkG9VRqnBaW99T39WIO9vdLWE4H9GtPub3FeNTvthTlctD
dJhvny8bL21iMRdLNSbHqrl5BUZqXEcuNogjXnOTvf6IUJSf0pOYZkBL+cSkMWF6
TRPPB5MM0LegYFazCV5Kr15C2SgoZnRq+aDk0z5iWndL9vVN5474vidqUAViI3Y8
YwGaldjz9pWq/+OMicbJN8EHBGRMXtWbH9TFHEZ8uOnEhO6e7JTE49+ePa6BwwzR
kGOy0RgCoKGlXiTLEMLFASb8VVvK+IZO5pJhYMHUozmjyv2ug4LHxjdnhRbXlIAE
bNg2f6XZUOSOolH8Ct4lTPwHzBE1+nJtP/WAjD72SKu459hnHdTIDCiEkOibawTD
Q5swoftZEUovnvw0BewMbnRKgxKSQqYW4Q/Ta6bMRYJQnnTBiNHjcgQRkBEtGVfB
gZ5OnWraN1Sp4POJKbfNtwN6zL865uZMb/bHMLIIWR9fd34oQQTBPww05upKmrx/
npfrQaJa8psb3uWIxIWeYcMCAwEAAaOCAXowggF2MAwGA1UdEwEB/wQCMAAwHQYD
VR0OBBYEFGsbBliYu2Z8Eq5uso+hDRHioiQ3MIGlBgNVHSMEgZ0wgZqAFCbu9tfF
zlTLSKmKEeWTpFxOYNi6oXekdTBzMQswCQYDVQQGEwJGUjEMMAoGA1UECBMDSURG
MQ4wDAYDVQQHEwVQYXJpczEvMC0GA1UEChMmTG9jYWwgTk9ERS1PUENVQSBDZXJ0
aWZpY2F0ZSBBdXRob3JpdHkxFTATBgNVBAMTDE5vZGVPUENVQS1DQYIJAM76bbPF
cBypMD8GA1UdEQQ4MDaGHnVybjpJUEFXU0RYMDI6Tm9kZU9QQ1VBLUNsaWVudIIJ
bG9jYWxob3N0gglJUEFXU0RYMDIwLAYJYIZIAYb4QgENBB8WHU9wZW5TU0wgR2Vu
ZXJhdGVkIENlcnRpZmljYXRlMA4GA1UdDwEB/wQEAwIC/DAgBgNVHSUBAf8EFjAU
BggrBgEFBQcDAQYIKwYBBQUHAwIwDQYJKoZIhvcNAQELBQADggEBAD9nZ0d6VKxN
WzVW8Sa/kIStVVkjYQuXc0+1Wp8cF72sem1wAOPvbqSjR9OcBL+0GK07+VOtHVPU
6wofwfuKTrAJWtIEBwQM20u3uzkNZ/y2lnoibfzTCnFyNhTkgCI792XLfCuTbvHO
K7CJ+3QIZF4Eb1SbNEEmIkKnazNCDZbOmKztnbDICVvRpxy+1YCC7tObLh6C4YvQ
cYrDhtmuNFeIQkolMO8y0UK9n86LKoOd0GNUdeNolkLr0+RyIFTxdwylmqnzohi8
0basKO2bbhNt8mGKMF8DCMs93qH7Aw+/84wrXYuXD+mSCP1gTIpty1gvSwD06JTr
lT1dYRxMvi8=
-----END CERTIFICATE-----
