Certificate:
    Data:
        Version: 3 (0x2)
        Serial Number: 4104 (0x1008)
    Signature Algorithm: sha256WithRSAEncryption
        Issuer: C=FR, ST=IDF, L=Paris, O=Local NODE-OPCUA Certificate Authority, CN=NodeOPCUA-CA
        Validity
            Not Before: Apr 16 11:56:51 2018 GMT
            Not After : Apr 16 11:56:51 2019 GMT
        Subject: C=FR, O=NodeOPCUA, CN=NodeOPCUA
        Subject Public Key Info:
            Public Key Algorithm: rsaEncryption
                Public-Key: (1024 bit)
                Modulus:
                    00:bd:69:22:ac:8e:86:2e:23:37:bc:9e:b7:00:de:
                    ac:02:e0:85:89:22:58:ef:92:79:29:54:4e:86:39:
                    cf:5d:86:be:06:86:a6:3c:71:01:82:de:5d:10:69:
                    d1:db:00:4f:21:07:33:40:8b:da:70:c5:7b:5c:ed:
                    cb:b1:a2:0e:2b:42:05:a5:a7:dd:bf:52:0f:d0:23:
                    39:d9:c9:c6:16:af:b3:56:00:3d:2e:51:a9:5e:35:
                    ab:12:b5:79:11:89:b4:cf:da:e1:8f:27:aa:e0:b0:
                    30:8e:6b:f1:a3:5d:0e:8b:c1:e4:df:72:e4:ed:7f:
                    07:ac:88:ca:85:8d:9f:13:1d
                Exponent: 65537 (0x10001)
        X509v3 extensions:
            X509v3 Basic Constraints: critical
                CA:FALSE
            X509v3 Subject Key Identifier: 
                98:E5:A2:51:37:86:BB:B8:6F:57:3C:75:61:10:9C:11:68:E1:09:90
            X509v3 Authority Key Identifier: 
                keyid:26:EE:F6:D7:C5:CE:54:CB:48:A9:8A:11:E5:93:A4:5C:4E:60:D8:BA
                DirName:/C=FR/ST=IDF/L=Paris/O=Local NODE-OPCUA Certificate Authority/CN=NodeOPCUA-CA
                serial:CE:FA:6D:B3:C5:70:1C:A9

            X509v3 Subject Alternative Name: 
                URI:urn:IPAWSDX02:NodeOPCUA-Server, DNS:localhost, DNS:IPAWSDX02
            Netscape Comment: 
                OpenSSL Generated Certificate
            X509v3 Key Usage: critical
                Digital Signature, Non Repudiation, Key Encipherment, Data Encipherment, Key Agreement, Certificate Sign
            X509v3 Extended Key Usage: critical
                TLS Web Server Authentication, TLS Web Client Authentication
    Signature Algorithm: sha256WithRSAEncryption
         89:49:d5:c8:e4:11:5c:a6:72:2f:ce:15:b4:83:b1:d7:98:9c:
         d6:d2:08:2b:56:d2:cb:c7:44:16:60:50:ce:3f:18:d1:27:20:
         93:09:99:0d:1a:21:e2:fd:eb:34:27:cd:ac:26:02:05:89:06:
         f0:9a:d7:67:3d:97:12:5f:f0:5c:ba:21:c2:1c:f0:08:37:ae:
         8f:d2:0d:2c:52:d1:4d:eb:89:8b:e4:e0:64:ff:48:5c:99:83:
         78:21:80:d4:3b:af:89:81:46:94:5c:0c:7b:f0:e0:7a:34:df:
         a9:c8:e4:45:d8:d6:80:6e:a1:2c:59:ae:e4:7f:f8:f8:35:c3:
         25:0d:aa:fd:05:a8:a6:33:24:10:89:90:56:ed:84:e1:36:01:
         c8:4d:13:1c:12:e4:e0:29:17:35:6d:21:90:be:1c:81:c0:55:
         9a:da:6e:20:cb:15:68:de:41:38:1b:28:63:6a:b9:c5:c3:70:
         4e:d6:49:01:a2:80:4f:f2:e2:6d:4e:2a:cb:be:87:6d:0c:15:
         7b:79:da:87:d7:c1:36:84:5c:87:09:03:48:b2:83:be:4a:2e:
         55:32:bd:44:f8:db:7d:16:09:07:c2:5f:f2:4f:83:3e:a8:3b:
         4f:1b:c0:0a:7b:14:25:08:50:bb:ba:4f:04:f1:86:95:47:80:
         80:3b:71:60
-----BEGIN CERTIFICATE-----
MIIEIDCCAwigAwIBAgICEAgwDQYJKoZIhvcNAQELBQAwczELMAkGA1UEBhMCRlIx
DDAKBgNVBAgTA0lERjEOMAwGA1UEBxMFUGFyaXMxLzAtBgNVBAoTJkxvY2FsIE5P
REUtT1BDVUEgQ2VydGlmaWNhdGUgQXV0aG9yaXR5MRUwEwYDVQQDEwxOb2RlT1BD
VUEtQ0EwIhgPMjAxODA0MTYxMTU2NTFaGA8yMDE5MDQxNjExNTY1MVowNTELMAkG
A1UEBhMCRlIxEjAQBgNVBAoMCU5vZGVPUENVQTESMBAGA1UEAwwJTm9kZU9QQ1VB
MIGfMA0GCSqGSIb3DQEBAQUAA4GNADCBiQKBgQC9aSKsjoYuIze8nrcA3qwC4IWJ
IljvknkpVE6GOc9dhr4GhqY8cQGC3l0QadHbAE8hBzNAi9pwxXtc7cuxog4rQgWl
p92/Ug/QIznZycYWr7NWAD0uUaleNasStXkRibTP2uGPJ6rgsDCOa/GjXQ6LweTf
cuTtfwesiMqFjZ8THQIDAQABo4IBejCCAXYwDAYDVR0TAQH/BAIwADAdBgNVHQ4E
FgQUmOWiUTeGu7hvVzx1YRCcEWjhCZAwgaUGA1UdIwSBnTCBmoAUJu7218XOVMtI
qYoR5ZOkXE5g2Lqhd6R1MHMxCzAJBgNVBAYTAkZSMQwwCgYDVQQIEwNJREYxDjAM
BgNVBAcTBVBhcmlzMS8wLQYDVQQKEyZMb2NhbCBOT0RFLU9QQ1VBIENlcnRpZmlj
YXRlIEF1dGhvcml0eTEVMBMGA1UEAxMMTm9kZU9QQ1VBLUNBggkAzvpts8VwHKkw
PwYDVR0RBDgwNoYedXJuOklQQVdTRFgwMjpOb2RlT1BDVUEtU2VydmVygglsb2Nh
bGhvc3SCCUlQQVdTRFgwMjAsBglghkgBhvhCAQ0EHxYdT3BlblNTTCBHZW5lcmF0
ZWQgQ2VydGlmaWNhdGUwDgYDVR0PAQH/BAQDAgL8MCAGA1UdJQEB/wQWMBQGCCsG
AQUFBwMBBggrBgEFBQcDAjANBgkqhkiG9w0BAQsFAAOCAQEAiUnVyOQRXKZyL84V
tIOx15ic1tIIK1bSy8dEFmBQzj8Y0ScgkwmZDRoh4v3rNCfNrCYCBYkG8JrXZz2X
El/wXLohwhzwCDeuj9INLFLRTeuJi+TgZP9IXJmDeCGA1DuviYFGlFwMe/DgejTf
qcjkRdjWgG6hLFmu5H/4+DXDJQ2q/QWopjMkEImQVu2E4TYByE0THBLk4CkXNW0h
kL4cgcBVmtpuIMsVaN5BOBsoY2q5xcNwTtZJAaKAT/LibU4qy76HbQwVe3nah9fB
NoRchwkDSLKDvkouVTK9RPjbfRYJB8Jf8k+DPqg7TxvACnsUJQhQu7pPBPGGlUeA
gDtxYA==
-----END CERTIFICATE-----
