Certificate:
    Data:
        Version: 3 (0x2)
        Serial Number: 4105 (0x1009)
    Signature Algorithm: sha256WithRSAEncryption
        Issuer: O=NodeOPCUA, CN=NodeOPCUA
        Validity
            Not Before: Apr 16 11:56:51 2018 GMT
            Not After : Apr 16 11:56:51 2019 GMT
        Subject: O=NodeOPCUA, CN=NodeOPCUA
        Subject Public Key Info:
            Public Key Algorithm: rsaEncryption
                Public-Key: (1024 bit)
                Modulus:
                    00:bd:69:22:ac:8e:86:2e:23:37:bc:9e:b7:00:de:
                    ac:02:e0:85:89:22:58:ef:92:79:29:54:4e:86:39:
                    cf:5d:86:be:06:86:a6:3c:71:01:82:de:5d:10:69:
                    d1:db:00:4f:21:07:33:40:8b:da:70:c5:7b:5c:ed:
                    cb:b1:a2:0e:2b:42:05:a5:a7:dd:bf:52:0f:d0:23:
                    39:d9:c9:c6:16:af:b3:56:00:3d:2e:51:a9:5e:35:
                    ab:12:b5:79:11:89:b4:cf:da:e1:8f:27:aa:e0:b0:
                    30:8e:6b:f1:a3:5d:0e:8b:c1:e4:df:72:e4:ed:7f:
                    07:ac:88:ca:85:8d:9f:13:1d
                Exponent: 65537 (0x10001)
        X509v3 extensions:
            X509v3 Basic Constraints: critical
                CA:FALSE
            X509v3 Subject Key Identifier: 
                98:E5:A2:51:37:86:BB:B8:6F:57:3C:75:61:10:9C:11:68:E1:09:90
            X509v3 Authority Key Identifier: 
                keyid:98:E5:A2:51:37:86:BB:B8:6F:57:3C:75:61:10:9C:11:68:E1:09:90
                DirName:/O=NodeOPCUA/CN=NodeOPCUA
                serial:10:09

            X509v3 Subject Alternative Name: 
                URI:urn:IPAWSDX02:NodeOPCUA-Server, DNS:localhost, DNS:IPAWSDX02
            Netscape Comment: 
                OpenSSL Generated Certificate
            X509v3 Key Usage: critical
                Digital Signature, Non Repudiation, Key Encipherment, Data Encipherment, Key Agreement, Certificate Sign
            X509v3 Extended Key Usage: critical
                TLS Web Server Authentication, TLS Web Client Authentication
    Signature Algorithm: sha256WithRSAEncryption
         74:0a:6c:75:36:f3:07:8d:87:78:8d:a9:39:36:9d:cf:d3:ed:
         e4:0c:19:88:0e:5c:cf:32:ba:bf:ad:6d:c8:9e:28:10:1a:fe:
         29:3e:90:ff:34:06:9c:68:bf:95:75:86:75:61:eb:6d:8b:89:
         0d:b4:20:62:03:34:b0:d9:8f:41:c8:1d:15:61:b5:ed:fc:cd:
         72:05:ff:0e:dc:a7:08:da:5c:d6:3e:a1:12:ad:fd:29:09:9a:
         cd:27:8b:15:04:89:99:43:51:5e:be:ee:b3:a0:da:13:4c:a8:
         7a:ea:01:21:37:0d:1a:4d:21:2f:a2:2c:02:a8:cc:4b:b1:9c:
         ed:5b
-----BEGIN CERTIFICATE-----
MIIC8jCCAlugAwIBAgICEAkwDQYJKoZIhvcNAQELBQAwKDESMBAGA1UEChMJTm9k
ZU9QQ1VBMRIwEAYDVQQDEwlOb2RlT1BDVUEwIhgPMjAxODA0MTYxMTU2NTFaGA8y
MDE5MDQxNjExNTY1MVowKDESMBAGA1UEChMJTm9kZU9QQ1VBMRIwEAYDVQQDEwlO
b2RlT1BDVUEwgZ8wDQYJKoZIhvcNAQEBBQADgY0AMIGJAoGBAL1pIqyOhi4jN7ye
twDerALghYkiWO+SeSlUToY5z12GvgaGpjxxAYLeXRBp0dsATyEHM0CL2nDFe1zt
y7GiDitCBaWn3b9SD9AjOdnJxhavs1YAPS5RqV41qxK1eRGJtM/a4Y8nquCwMI5r
8aNdDovB5N9y5O1/B6yIyoWNnxMdAgMBAAGjggElMIIBITAMBgNVHRMBAf8EAjAA
MB0GA1UdDgQWBBSY5aJRN4a7uG9XPHVhEJwRaOEJkDBRBgNVHSMESjBIgBSY5aJR
N4a7uG9XPHVhEJwRaOEJkKEspCowKDESMBAGA1UEChMJTm9kZU9QQ1VBMRIwEAYD
VQQDEwlOb2RlT1BDVUGCAhAJMD8GA1UdEQQ4MDaGHnVybjpJUEFXU0RYMDI6Tm9k
ZU9QQ1VBLVNlcnZlcoIJbG9jYWxob3N0gglJUEFXU0RYMDIwLAYJYIZIAYb4QgEN
BB8WHU9wZW5TU0wgR2VuZXJhdGVkIENlcnRpZmljYXRlMA4GA1UdDwEB/wQEAwIC
/DAgBgNVHSUBAf8EFjAUBggrBgEFBQcDAQYIKwYBBQUHAwIwDQYJKoZIhvcNAQEL
BQADgYEAdApsdTbzB42HeI2pOTadz9Pt5AwZiA5czzK6v61tyJ4oEBr+KT6Q/zQG
nGi/lXWGdWHrbYuJDbQgYgM0sNmPQcgdFWG17fzNcgX/DtynCNpc1j6hEq39KQma
zSeLFQSJmUNRXr7us6DaE0yoeuoBITcNGk0hL6IsAqjMS7Gc7Vs=
-----END CERTIFICATE-----
