Certificate:
    Data:
        Version: 3 (0x2)
        Serial Number: 4107 (0x100b)
    Signature Algorithm: sha256WithRSAEncryption
        Issuer: O=NodeOPCUA, CN=NodeOPCUA
        Validity
            Not Before: Apr 16 11:56:51 2018 GMT
            Not After : Apr 16 11:56:51 2019 GMT
        Subject: O=NodeOPCUA, CN=NodeOPCUA
        Subject Public Key Info:
            Public Key Algorithm: rsaEncryption
                Public-Key: (2048 bit)
                Modulus:
                    00:be:98:cd:2e:fd:e5:44:e8:db:ae:66:18:75:a6:
                    c8:eb:94:df:7f:df:24:dd:83:1d:2f:07:e4:d2:da:
                    a7:be:e1:7c:3d:73:24:9e:f9:49:29:d6:cd:96:66:
                    e9:b8:00:43:cd:79:80:a6:ae:3a:4d:cd:9e:65:7e:
                    25:5f:e9:f2:9c:b9:81:39:62:a1:97:b1:57:28:28:
                    b6:97:97:2c:48:d0:f8:4c:2d:59:a6:8b:d8:91:60:
                    b1:0f:09:21:17:1f:d4:e3:22:ae:57:71:74:03:6b:
                    3e:b9:e7:0f:44:61:ff:33:43:2f:d3:17:96:40:61:
                    1a:01:89:c8:79:92:4e:89:33:4e:61:d8:de:97:2f:
                    98:cf:a6:9c:b3:39:8c:71:c8:9e:c0:90:5e:7e:20:
                    13:de:91:88:a2:bd:3b:50:1a:a6:e7:99:d4:3f:47:
                    1e:ed:3b:54:22:97:82:cb:cc:ff:91:b4:36:52:ad:
                    ba:1e:07:19:62:01:1f:d6:ff:df:94:78:a7:ed:eb:
                    aa:5b:ea:90:22:76:d3:e3:d5:37:75:e9:f4:ac:1d:
                    15:9f:1c:96:0d:eb:58:0b:77:5a:1c:d8:f8:ae:cd:
                    ed:38:da:d7:5a:ad:c2:e1:bd:7d:65:40:4e:ba:52:
                    cf:7c:7b:86:70:98:32:40:fa:cd:a4:38:f5:81:4e:
                    73:13
                Exponent: 65537 (0x10001)
        X509v3 extensions:
            X509v3 Basic Constraints: critical
                CA:FALSE
            X509v3 Subject Key Identifier: 
                00:C1:02:80:8B:06:7A:4D:91:C1:29:2E:B1:D7:4B:01:E2:41:9A:F6
            X509v3 Authority Key Identifier: 
                keyid:00:C1:02:80:8B:06:7A:4D:91:C1:29:2E:B1:D7:4B:01:E2:41:9A:F6
                DirName:/O=NodeOPCUA/CN=NodeOPCUA
                serial:10:0B

            X509v3 Subject Alternative Name: 
                URI:urn:IPAWSDX02:NodeOPCUA-Server, DNS:localhost, DNS:IPAWSDX02
            Netscape Comment: 
                OpenSSL Generated Certificate
            X509v3 Key Usage: critical
                Digital Signature, Non Repudiation, Key Encipherment, Data Encipherment, Key Agreement, Certificate Sign
            X509v3 Extended Key Usage: critical
                TLS Web Server Authentication, TLS Web Client Authentication
    Signature Algorithm: sha256WithRSAEncryption
         3d:07:64:94:dc:a0:62:5c:dd:21:a5:c4:2e:70:d0:26:0c:bf:
         ec:42:78:46:d4:ee:6e:24:b4:9c:30:26:fd:db:56:85:8b:c3:
         23:e1:3f:8c:1b:5f:d6:7a:8b:57:a4:74:8f:a3:48:5c:2b:db:
         c2:8f:7c:24:40:fc:23:ee:9c:b3:3b:97:cc:e2:d8:ac:6e:36:
         ae:4a:22:09:f6:0c:f1:aa:8b:9a:54:d7:e3:9c:6e:1f:1e:58:
         6c:69:68:6a:e0:ca:56:5c:4f:01:ac:07:34:99:1d:f3:a2:70:
         7d:a1:dd:12:3b:55:db:41:8b:fc:23:57:cb:da:05:67:4a:73:
         27:36:76:88:61:f4:85:05:4e:9c:fe:76:55:93:85:1d:d7:ad:
         09:5f:86:b9:05:26:81:56:06:56:68:ec:99:ce:69:b6:65:bc:
         f2:35:a3:45:85:9f:61:20:ac:0a:b5:dd:64:e7:6f:cb:87:ff:
         62:e5:64:a7:17:a2:85:c2:40:59:2f:b3:6b:0a:a1:92:5c:91:
         90:42:d3:62:78:99:9e:59:02:d0:52:9a:76:64:aa:94:ad:d3:
         ce:8a:52:96:93:dd:58:02:a6:97:2b:a2:6d:fe:ed:c7:e4:56:
         54:ef:c2:48:87:5e:06:46:de:17:31:3c:b3:da:88:92:55:e2:
         b8:aa:ff:13
-----BEGIN CERTIFICATE-----
MIID9zCCAt+gAwIBAgICEAswDQYJKoZIhvcNAQELBQAwKDESMBAGA1UEChMJTm9k
ZU9QQ1VBMRIwEAYDVQQDEwlOb2RlT1BDVUEwIhgPMjAxODA0MTYxMTU2NTFaGA8y
MDE5MDQxNjExNTY1MVowKDESMBAGA1UEChMJTm9kZU9QQ1VBMRIwEAYDVQQDEwlO
b2RlT1BDVUEwggEiMA0GCSqGSIb3DQEBAQUAA4IBDwAwggEKAoIBAQC+mM0u/eVE
6NuuZhh1psjrlN9/3yTdgx0vB+TS2qe+4Xw9cySe+Ukp1s2WZum4AEPNeYCmrjpN
zZ5lfiVf6fKcuYE5YqGXsVcoKLaXlyxI0PhMLVmmi9iRYLEPCSEXH9TjIq5XcXQD
az655w9EYf8zQy/TF5ZAYRoBich5kk6JM05h2N6XL5jPppyzOYxxyJ7AkF5+IBPe
kYiivTtQGqbnmdQ/Rx7tO1Qil4LLzP+RtDZSrboeBxliAR/W/9+UeKft66pb6pAi
dtPj1Td16fSsHRWfHJYN61gLd1oc2Piuze042tdarcLhvX1lQE66Us98e4ZwmDJA
+s2kOPWBTnMTAgMBAAGjggElMIIBITAMBgNVHRMBAf8EAjAAMB0GA1UdDgQWBBQA
wQKAiwZ6TZHBKS6x10sB4kGa9jBRBgNVHSMESjBIgBQAwQKAiwZ6TZHBKS6x10sB
4kGa9qEspCowKDESMBAGA1UEChMJTm9kZU9QQ1VBMRIwEAYDVQQDEwlOb2RlT1BD
VUGCAhALMD8GA1UdEQQ4MDaGHnVybjpJUEFXU0RYMDI6Tm9kZU9QQ1VBLVNlcnZl
coIJbG9jYWxob3N0gglJUEFXU0RYMDIwLAYJYIZIAYb4QgENBB8WHU9wZW5TU0wg
R2VuZXJhdGVkIENlcnRpZmljYXRlMA4GA1UdDwEB/wQEAwIC/DAgBgNVHSUBAf8E
FjAUBggrBgEFBQcDAQYIKwYBBQUHAwIwDQYJKoZIhvcNAQELBQADggEBAD0HZJTc
oGJc3SGlxC5w0CYMv+xCeEbU7m4ktJwwJv3bVoWLwyPhP4wbX9Z6i1ekdI+jSFwr
28KPfCRA/CPunLM7l8zi2KxuNq5KIgn2DPGqi5pU1+Ocbh8eWGxpaGrgylZcTwGs
BzSZHfOicH2h3RI7VdtBi/wjV8vaBWdKcyc2dohh9IUFTpz+dlWThR3XrQlfhrkF
JoFWBlZo7JnOabZlvPI1o0WFn2EgrAq13WTnb8uH/2LlZKcXooXCQFkvs2sKoZJc
kZBC02J4mZ5ZAtBSmnZkqpSt086KUpaT3VgCppcrom3+7cfkVlTvwkiHXgZG3hcx
PLPaiJJV4riq/xM=
-----END CERTIFICATE-----
