Certificate:
    Data:
        Version: 3 (0x2)
        Serial Number: 4108 (0x100c)
    Signature Algorithm: sha256WithRSAEncryption
        Issuer: C=FR, ST=IDF, L=Paris, O=Local NODE-OPCUA Certificate Authority, CN=NodeOPCUA-CA
        Validity
            Not Before: Apr 16 11:56:51 2018 GMT
            Not After : Apr 16 11:56:51 2019 GMT
        Subject: C=FR, O=NodeOPCUA, CN=NodeOPCUA
        Subject Public Key Info:
            Public Key Algorithm: rsaEncryption
                Public-Key: (3072 bit)
                Modulus:
                    00:f4:ee:53:52:f5:df:95:f0:e4:84:ef:ed:97:ff:
                    29:8e:c2:31:9c:0d:fd:ac:0c:75:f1:60:ea:93:52:
                    e4:f8:5b:e2:9b:00:05:20:b5:20:76:9d:fc:cc:11:
                    38:47:09:3d:77:18:88:a7:91:42:43:eb:8f:8a:69:
                    3f:87:0c:d1:b3:56:d7:c2:46:87:63:7d:98:79:76:
                    b6:dc:b9:6f:0e:99:67:07:2c:66:63:46:d5:6e:2f:
                    58:b8:7c:c1:45:db:b8:85:f1:be:0c:0a:cd:14:62:
                    de:8b:93:51:82:1e:ce:ed:fd:f9:11:81:73:8d:9f:
                    a1:1f:35:0a:2a:56:55:a1:c1:d2:d0:9e:5f:91:48:
                    7e:b2:dc:fe:f0:7e:31:86:d6:80:92:87:79:65:bf:
                    3d:5d:ec:c2:9b:41:6b:46:36:b4:5b:c6:7a:eb:ad:
                    3f:e3:97:cb:e1:d6:b5:0e:d7:fd:26:a4:86:76:d6:
                    7e:e8:6a:5d:60:2b:cf:4d:21:79:e0:28:74:85:03:
                    a7:7f:40:19:b4:b8:e5:a1:82:4e:e0:60:5a:61:8e:
                    b1:a9:dc:2b:ea:3c:e3:e7:4a:53:d2:83:93:ce:b5:
                    90:ca:d0:13:c8:2a:93:bc:cc:b7:04:a8:c1:9d:ac:
                    0a:af:db:86:f2:40:ab:ca:1f:1f:75:7b:92:1f:40:
                    98:49:04:97:54:ad:45:8e:01:b1:6a:36:be:1f:7d:
                    42:2b:7a:a5:92:24:3a:db:82:d6:59:3d:ed:f7:39:
                    dc:c3:ab:39:1d:73:ce:41:f4:71:11:f6:8d:45:5f:
                    e5:9f:2d:7f:fb:62:cf:c7:10:92:99:dc:dc:1c:e0:
                    01:6f:4a:10:a1:fa:bb:d8:4c:68:35:2d:cb:61:ac:
                    00:7e:c9:ee:d3:72:d6:0f:a0:77:b8:e0:fd:1d:75:
                    d4:15:ad:b9:0f:47:b1:6d:fe:45:20:0b:ab:4c:3d:
                    a4:44:7f:74:0b:39:23:0a:b3:76:42:60:2c:7a:82:
                    45:26:5c:a2:68:14:dc:32:4e:2d
                Exponent: 65537 (0x10001)
        X509v3 extensions:
            X509v3 Basic Constraints: critical
                CA:FALSE
            X509v3 Subject Key Identifier: 
                63:A0:4B:DF:66:26:21:72:B5:82:3A:BA:F5:4B:2C:2E:BE:AF:C9:68
            X509v3 Authority Key Identifier: 
                keyid:26:EE:F6:D7:C5:CE:54:CB:48:A9:8A:11:E5:93:A4:5C:4E:60:D8:BA
                DirName:/C=FR/ST=IDF/L=Paris/O=Local NODE-OPCUA Certificate Authority/CN=NodeOPCUA-CA
                serial:CE:FA:6D:B3:C5:70:1C:A9

            X509v3 Subject Alternative Name: 
                URI:urn:IPAWSDX02:NodeOPCUA-Server, DNS:localhost, DNS:IPAWSDX02
            Netscape Comment: 
                OpenSSL Generated Certificate
            X509v3 Key Usage: critical
                Digital Signature, Non Repudiation, Key Encipherment, Data Encipherment, Key Agreement, Certificate Sign
            X509v3 Extended Key Usage: critical
                TLS Web Server Authentication, TLS Web Client Authentication
    Signature Algorithm: sha256WithRSAEncryption
         55:52:b3:8b:19:65:4a:95:a9:94:03:83:08:b2:57:78:77:af:
         88:ed:82:d2:d4:c6:2f:85:0a:0b:62:0c:8f:89:42:a0:99:4c:
         31:49:c6:cd:3d:6b:84:56:f1:bd:18:53:c4:0f:8e:be:79:d1:
         55:6a:6a:86:25:f5:42:82:fc:09:3d:e5:94:84:07:7d:ac:65:
         8f:fc:ac:d0:9a:52:d9:90:fd:8b:e1:8f:57:ba:5a:a0:d1:00:
         c2:13:22:fe:7f:bd:36:ff:c9:d4:b7:f2:7c:65:72:b6:8a:d5:
         ee:e7:14:4c:cc:2e:42:41:cd:e2:35:a2:57:f8:23:8a:52:bc:
         0b:bd:3c:03:37:bc:19:89:91:91:1e:04:2c:72:98:4b:86:38:
         f2:70:77:38:9c:aa:25:b0:bc:74:93:20:eb:d8:19:70:59:67:
         fd:4b:ef:f3:27:97:6b:37:1e:0c:4c:41:b8:7a:80:a8:3a:2d:
         66:b3:4d:2b:e8:ce:ad:bd:20:50:ee:c0:27:42:42:2d:06:11:
         af:58:2b:e6:d6:11:7d:3b:24:b3:4a:9a:40:f7:c7:11:c6:79:
         67:f5:80:3d:0a:0f:8a:f1:65:ec:32:32:06:d4:17:c9:db:9e:
         04:ee:6b:f1:80:52:03:c4:c8:74:7d:3b:b1:9d:0f:22:a9:23:
         7e:2b:1d:2f
-----BEGIN CERTIFICATE-----
MIIFJDCCBAygAwIBAgICEAwwDQYJKoZIhvcNAQELBQAwczELMAkGA1UEBhMCRlIx
DDAKBgNVBAgTA0lERjEOMAwGA1UEBxMFUGFyaXMxLzAtBgNVBAoTJkxvY2FsIE5P
REUtT1BDVUEgQ2VydGlmaWNhdGUgQXV0aG9yaXR5MRUwEwYDVQQDEwxOb2RlT1BD
VUEtQ0EwIhgPMjAxODA0MTYxMTU2NTFaGA8yMDE5MDQxNjExNTY1MVowNTELMAkG
A1UEBhMCRlIxEjAQBgNVBAoMCU5vZGVPUENVQTESMBAGA1UEAwwJTm9kZU9QQ1VB
MIIBojANBgkqhkiG9w0BAQEFAAOCAY8AMIIBigKCAYEA9O5TUvXflfDkhO/tl/8p
jsIxnA39rAx18WDqk1Lk+FvimwAFILUgdp38zBE4Rwk9dxiIp5FCQ+uPimk/hwzR
s1bXwkaHY32YeXa23LlvDplnByxmY0bVbi9YuHzBRdu4hfG+DArNFGLei5NRgh7O
7f35EYFzjZ+hHzUKKlZVocHS0J5fkUh+stz+8H4xhtaAkod5Zb89XezCm0FrRja0
W8Z6660/45fL4da1Dtf9JqSGdtZ+6GpdYCvPTSF54Ch0hQOnf0AZtLjloYJO4GBa
YY6xqdwr6jzj50pT0oOTzrWQytATyCqTvMy3BKjBnawKr9uG8kCryh8fdXuSH0CY
SQSXVK1FjgGxaja+H31CK3qlkiQ624LWWT3t9zncw6s5HXPOQfRxEfaNRV/lny1/
+2LPxxCSmdzcHOABb0oQofq72ExoNS3LYawAfsnu03LWD6B3uOD9HXXUFa25D0ex
bf5FIAurTD2kRH90CzkjCrN2QmAseoJFJlyiaBTcMk4tAgMBAAGjggF6MIIBdjAM
BgNVHRMBAf8EAjAAMB0GA1UdDgQWBBRjoEvfZiYhcrWCOrr1Sywuvq/JaDCBpQYD
VR0jBIGdMIGagBQm7vbXxc5Uy0ipihHlk6RcTmDYuqF3pHUwczELMAkGA1UEBhMC
RlIxDDAKBgNVBAgTA0lERjEOMAwGA1UEBxMFUGFyaXMxLzAtBgNVBAoTJkxvY2Fs
IE5PREUtT1BDVUEgQ2VydGlmaWNhdGUgQXV0aG9yaXR5MRUwEwYDVQQDEwxOb2Rl
T1BDVUEtQ0GCCQDO+m2zxXAcqTA/BgNVHREEODA2hh51cm46SVBBV1NEWDAyOk5v
ZGVPUENVQS1TZXJ2ZXKCCWxvY2FsaG9zdIIJSVBBV1NEWDAyMCwGCWCGSAGG+EIB
DQQfFh1PcGVuU1NMIEdlbmVyYXRlZCBDZXJ0aWZpY2F0ZTAOBgNVHQ8BAf8EBAMC
AvwwIAYDVR0lAQH/BBYwFAYIKwYBBQUHAwEGCCsGAQUFBwMCMA0GCSqGSIb3DQEB
CwUAA4IBAQBVUrOLGWVKlamUA4MIsld4d6+I7YLS1MYvhQoLYgyPiUKgmUwxScbN
PWuEVvG9GFPED46+edFVamqGJfVCgvwJPeWUhAd9rGWP/KzQmlLZkP2L4Y9Xulqg
0QDCEyL+f702/8nUt/J8ZXK2itXu5xRMzC5CQc3iNaJX+COKUrwLvTwDN7wZiZGR
HgQscphLhjjycHc4nKolsLx0kyDr2BlwWWf9S+/zJ5drNx4MTEG4eoCoOi1ms00r
6M6tvSBQ7sAnQkItBhGvWCvm1hF9OySzSppA98cRxnln9YA9Cg+K8WXsMjIG1BfJ
254E7mvxgFIDxMh0fTuxnQ8iqSN+Kx0v
-----END CERTIFICATE-----
