Certificate:
    Data:
        Version: 3 (0x2)
        Serial Number: 4109 (0x100d)
    Signature Algorithm: sha256WithRSAEncryption
        Issuer: O=NodeOPCUA, CN=NodeOPCUA
        Validity
            Not Before: Apr 16 11:56:51 2018 GMT
            Not After : Apr 16 11:56:51 2019 GMT
        Subject: O=NodeOPCUA, CN=NodeOPCUA
        Subject Public Key Info:
            Public Key Algorithm: rsaEncryption
                Public-Key: (3072 bit)
                Modulus:
                    00:f4:ee:53:52:f5:df:95:f0:e4:84:ef:ed:97:ff:
                    29:8e:c2:31:9c:0d:fd:ac:0c:75:f1:60:ea:93:52:
                    e4:f8:5b:e2:9b:00:05:20:b5:20:76:9d:fc:cc:11:
                    38:47:09:3d:77:18:88:a7:91:42:43:eb:8f:8a:69:
                    3f:87:0c:d1:b3:56:d7:c2:46:87:63:7d:98:79:76:
                    b6:dc:b9:6f:0e:99:67:07:2c:66:63:46:d5:6e:2f:
                    58:b8:7c:c1:45:db:b8:85:f1:be:0c:0a:cd:14:62:
                    de:8b:93:51:82:1e:ce:ed:fd:f9:11:81:73:8d:9f:
                    a1:1f:35:0a:2a:56:55:a1:c1:d2:d0:9e:5f:91:48:
                    7e:b2:dc:fe:f0:7e:31:86:d6:80:92:87:79:65:bf:
                    3d:5d:ec:c2:9b:41:6b:46:36:b4:5b:c6:7a:eb:ad:
                    3f:e3:97:cb:e1:d6:b5:0e:d7:fd:26:a4:86:76:d6:
                    7e:e8:6a:5d:60:2b:cf:4d:21:79:e0:28:74:85:03:
                    a7:7f:40:19:b4:b8:e5:a1:82:4e:e0:60:5a:61:8e:
                    b1:a9:dc:2b:ea:3c:e3:e7:4a:53:d2:83:93:ce:b5:
                    90:ca:d0:13:c8:2a:93:bc:cc:b7:04:a8:c1:9d:ac:
                    0a:af:db:86:f2:40:ab:ca:1f:1f:75:7b:92:1f:40:
                    98:49:04:97:54:ad:45:8e:01:b1:6a:36:be:1f:7d:
                    42:2b:7a:a5:92:24:3a:db:82:d6:59:3d:ed:f7:39:
                    dc:c3:ab:39:1d:73:ce:41:f4:71:11:f6:8d:45:5f:
                    e5:9f:2d:7f:fb:62:cf:c7:10:92:99:dc:dc:1c:e0:
                    01:6f:4a:10:a1:fa:bb:d8:4c:68:35:2d:cb:61:ac:
                    00:7e:c9:ee:d3:72:d6:0f:a0:77:b8:e0:fd:1d:75:
                    d4:15:ad:b9:0f:47:b1:6d:fe:45:20:0b:ab:4c:3d:
                    a4:44:7f:74:0b:39:23:0a:b3:76:42:60:2c:7a:82:
                    45:26:5c:a2:68:14:dc:32:4e:2d
                Exponent: 65537 (0x10001)
        X509v3 extensions:
            X509v3 Basic Constraints: critical
                CA:FALSE
            X509v3 Subject Key Identifier: 
                63:A0:4B:DF:66:26:21:72:B5:82:3A:BA:F5:4B:2C:2E:BE:AF:C9:68
            X509v3 Authority Key Identifier: 
                keyid:63:A0:4B:DF:66:26:21:72:B5:82:3A:BA:F5:4B:2C:2E:BE:AF:C9:68
                DirName:/O=NodeOPCUA/CN=NodeOPCUA
                serial:10:0D

            X509v3 Subject Alternative Name: 
                URI:urn:IPAWSDX02:NodeOPCUA-Server, DNS:localhost, DNS:IPAWSDX02
            Netscape Comment: 
                OpenSSL Generated Certificate
            X509v3 Key Usage: critical
                Digital Signature, Non Repudiation, Key Encipherment, Data Encipherment, Key Agreement, Certificate Sign
            X509v3 Extended Key Usage: critical
                TLS Web Server Authentication, TLS Web Client Authentication
    Signature Algorithm: sha256WithRSAEncryption
         2b:bb:79:07:12:d9:bd:4b:30:ad:15:c6:3f:2c:18:a3:ec:e2:
         fc:ff:66:26:43:42:d4:f9:dc:ce:2b:6f:b3:e8:b0:a6:8d:d5:
         d4:ee:3c:19:b7:f6:a8:ec:8b:42:96:3e:f7:24:f0:76:66:b3:
         51:e2:bc:98:a5:64:63:d4:69:2d:ec:f7:5f:29:30:a1:8d:d3:
         ea:94:0c:ac:b8:0c:8b:be:51:27:89:e4:42:af:30:dd:9e:f5:
         12:a9:da:d2:80:41:44:41:f1:54:ef:ea:b7:1e:a0:7f:22:20:
         87:54:a7:bb:6b:d5:38:1c:7f:d0:9c:81:84:6c:f1:69:8b:46:
         e0:c6:ae:2b:a4:4a:68:5e:17:42:1f:f0:6c:bd:a3:1d:c7:76:
         a9:a4:90:6b:e0:37:61:47:2b:39:76:2b:90:18:6f:ea:7f:2f:
         82:c0:8d:52:db:6c:cb:79:34:a2:5e:87:a1:ca:57:f7:f8:35:
         c9:75:e1:16:5b:99:3c:34:78:47:f1:c5:f8:ed:6b:1d:ed:49:
         cd:a6:3d:79:20:b8:be:8a:9c:20:31:b2:28:d4:57:b0:4a:65:
         e1:8a:7d:04:ce:2c:53:e3:0e:4b:c6:6d:35:44:32:f2:43:0c:
         92:05:0b:f0:7b:a2:8b:82:9f:e2:4d:85:5c:7f:09:ff:58:ea:
         41:7f:0a:9c:93:1f:6a:d8:31:ca:e7:23:32:6d:20:0e:be:51:
         b3:7c:cc:fa:d3:0e:41:14:01:98:9b:cb:c1:cb:ca:09:3e:50:
         91:c5:e5:27:08:87:6d:c8:e9:ba:53:c2:be:20:c8:6b:54:06:
         3b:f8:78:90:e5:c5:a3:af:50:1a:1f:af:cb:3b:2b:20:46:86:
         45:e4:13:6d:30:b7:fd:76:c1:86:b1:fd:31:41:ec:c1:ab:88:
         77:91:e8:71:08:e5:e7:f6:67:20:b6:9a:73:fe:0f:28:e3:b9:
         80:4a:e8:00:5a:0f:ff:ec:2c:23:84:28:8c:06:62:85:7e:a2:
         b3:50:d1:a9:0b:6c
-----BEGIN CERTIFICATE-----
MIIE9zCCA1+gAwIBAgICEA0wDQYJKoZIhvcNAQELBQAwKDESMBAGA1UEChMJTm9k
ZU9QQ1VBMRIwEAYDVQQDEwlOb2RlT1BDVUEwIhgPMjAxODA0MTYxMTU2NTFaGA8y
MDE5MDQxNjExNTY1MVowKDESMBAGA1UEChMJTm9kZU9QQ1VBMRIwEAYDVQQDEwlO
b2RlT1BDVUEwggGiMA0GCSqGSIb3DQEBAQUAA4IBjwAwggGKAoIBgQD07lNS9d+V
8OSE7+2X/ymOwjGcDf2sDHXxYOqTUuT4W+KbAAUgtSB2nfzMEThHCT13GIinkUJD
64+KaT+HDNGzVtfCRodjfZh5drbcuW8OmWcHLGZjRtVuL1i4fMFF27iF8b4MCs0U
Yt6Lk1GCHs7t/fkRgXONn6EfNQoqVlWhwdLQnl+RSH6y3P7wfjGG1oCSh3llvz1d
7MKbQWtGNrRbxnrrrT/jl8vh1rUO1/0mpIZ21n7oal1gK89NIXngKHSFA6d/QBm0
uOWhgk7gYFphjrGp3CvqPOPnSlPSg5POtZDK0BPIKpO8zLcEqMGdrAqv24byQKvK
Hx91e5IfQJhJBJdUrUWOAbFqNr4ffUIreqWSJDrbgtZZPe33OdzDqzkdc85B9HER
9o1FX+WfLX/7Ys/HEJKZ3Nwc4AFvShCh+rvYTGg1LcthrAB+ye7TctYPoHe44P0d
ddQVrbkPR7Ft/kUgC6tMPaREf3QLOSMKs3ZCYCx6gkUmXKJoFNwyTi0CAwEAAaOC
ASUwggEhMAwGA1UdEwEB/wQCMAAwHQYDVR0OBBYEFGOgS99mJiFytYI6uvVLLC6+
r8loMFEGA1UdIwRKMEiAFGOgS99mJiFytYI6uvVLLC6+r8looSykKjAoMRIwEAYD
VQQKEwlOb2RlT1BDVUExEjAQBgNVBAMTCU5vZGVPUENVQYICEA0wPwYDVR0RBDgw
NoYedXJuOklQQVdTRFgwMjpOb2RlT1BDVUEtU2VydmVygglsb2NhbGhvc3SCCUlQ
QVdTRFgwMjAsBglghkgBhvhCAQ0EHxYdT3BlblNTTCBHZW5lcmF0ZWQgQ2VydGlm
aWNhdGUwDgYDVR0PAQH/BAQDAgL8MCAGA1UdJQEB/wQWMBQGCCsGAQUFBwMBBggr
BgEFBQcDAjANBgkqhkiG9w0BAQsFAAOCAYEAK7t5BxLZvUswrRXGPywYo+zi/P9m
JkNC1Pnczitvs+iwpo3V1O48Gbf2qOyLQpY+9yTwdmazUeK8mKVkY9RpLez3Xykw
oY3T6pQMrLgMi75RJ4nkQq8w3Z71Eqna0oBBREHxVO/qtx6gfyIgh1Snu2vVOBx/
0JyBhGzxaYtG4MauK6RKaF4XQh/wbL2jHcd2qaSQa+A3YUcrOXYrkBhv6n8vgsCN
Uttsy3k0ol6HocpX9/g1yXXhFluZPDR4R/HF+O1rHe1JzaY9eSC4voqcIDGyKNRX
sEpl4Yp9BM4sU+MOS8ZtNUQy8kMMkgUL8Huii4Kf4k2FXH8J/1jqQX8KnJMfatgx
yucjMm0gDr5Rs3zM+tMOQRQBmJvLwcvKCT5QkcXlJwiHbcjpulPCviDIa1QGO/h4
kOXFo69QGh+vyzsrIEaGReQTbTC3/XbBhrH9MUHswauId5HocQjl5/ZnILaac/4P
KOO5gEroAFoP/+wsI4QojAZihX6is1DRqQts
-----END CERTIFICATE-----
