Certificate:
    Data:
        Version: 3 (0x2)
        Serial Number: 4110 (0x100e)
    Signature Algorithm: sha256WithRSAEncryption
        Issuer: C=FR, ST=IDF, L=Paris, O=Local NODE-OPCUA Certificate Authority, CN=NodeOPCUA-CA
        Validity
            Not Before: Apr 16 11:56:51 2018 GMT
            Not After : Apr 16 11:56:51 2019 GMT
        Subject: C=FR, O=NodeOPCUA, CN=NodeOPCUA
        Subject Public Key Info:
            Public Key Algorithm: rsaEncryption
                Public-Key: (4096 bit)
                Modulus:
                    00:e0:87:f4:6a:50:47:70:21:38:62:95:68:a1:4e:
                    cd:7d:ea:e5:eb:1c:8d:a7:66:4d:fd:19:74:10:ee:
                    e0:ac:2f:c4:9a:0d:fa:37:2d:bf:f2:b6:1d:8e:c5:
                    ff:ad:60:47:56:87:51:87:ca:09:bb:d5:ea:a6:cf:
                    85:65:5e:db:90:55:d4:c7:e6:a7:86:c9:59:58:db:
                    40:15:b7:81:7b:cd:17:c3:7f:76:b3:40:a2:b4:ee:
                    49:4e:51:f1:95:51:74:be:ba:94:36:33:92:82:a4:
                    78:a6:41:e3:36:96:7a:71:8c:d6:79:24:56:95:0f:
                    89:ab:e8:53:24:80:36:5d:78:9e:95:6e:6c:bb:19:
                    1a:0c:07:5d:4f:bc:7a:07:69:da:f0:aa:9f:51:5b:
                    38:91:0d:9b:3f:2e:20:a8:7c:6f:20:a0:42:87:67:
                    d1:f6:0e:f2:e9:85:ec:c0:0e:57:cc:ec:18:bc:7c:
                    71:fb:d5:e6:77:21:e9:07:c3:df:aa:31:59:3b:0a:
                    16:d6:01:92:f2:df:e5:cf:c1:2b:5f:51:dd:00:03:
                    d6:62:63:9b:a7:42:d0:c8:0a:20:7b:ee:71:ad:84:
                    ee:da:1a:6a:f0:92:f2:d3:66:a8:be:95:dd:49:cb:
                    48:4e:e6:b9:1b:8c:b6:d3:7d:74:04:79:28:4b:d4:
                    15:20:ad:c2:24:19:d8:c3:5d:43:bd:6e:95:a0:77:
                    bb:c5:15:b5:69:81:86:d5:ab:4c:cf:bc:23:ce:24:
                    f9:86:2f:79:c4:13:fc:ea:a2:ce:42:38:b3:73:d1:
                    f5:47:d9:36:79:e1:6f:8f:d7:16:e7:74:79:c7:dc:
                    4b:81:4d:2e:cb:67:18:27:91:b0:f8:24:52:74:50:
                    de:f6:9a:ac:fe:97:56:25:5e:b7:24:c0:3f:a9:8e:
                    5c:24:86:b1:82:00:78:eb:c7:49:39:dd:4b:16:db:
                    f0:87:d1:6b:63:7e:61:a2:a4:9c:df:e6:da:2d:bf:
                    47:e9:91:66:3a:d1:3d:45:7a:b1:93:93:45:c5:b3:
                    9a:39:ba:40:ff:da:ea:c2:6b:d9:70:1a:3e:30:03:
                    af:0a:0d:70:c5:3d:b5:2d:d2:57:7e:45:55:43:e4:
                    5a:f0:04:e1:04:1e:26:50:90:af:36:7b:72:92:33:
                    25:cd:5d:3e:72:e0:68:de:f0:27:18:f2:32:9a:18:
                    b5:d1:0e:b1:d1:05:f0:9f:22:d9:db:09:e0:15:97:
                    d1:c4:8a:00:e6:ae:fe:04:f9:4d:b8:cf:a5:99:d8:
                    90:e5:2e:cb:bc:76:fc:b4:5e:2e:e1:c3:22:b9:23:
                    41:48:2b:f7:57:91:24:96:57:13:b7:b1:09:0a:2f:
                    d6:55:51
                Exponent: 65537 (0x10001)
        X509v3 extensions:
            X509v3 Basic Constraints: critical
                CA:FALSE
            X509v3 Subject Key Identifier: 
                1B:DA:10:20:C2:55:09:43:99:E8:84:7E:71:D1:81:1B:4A:51:9E:EB
            X509v3 Authority Key Identifier: 
                keyid:26:EE:F6:D7:C5:CE:54:CB:48:A9:8A:11:E5:93:A4:5C:4E:60:D8:BA
                DirName:/C=FR/ST=IDF/L=Paris/O=Local NODE-OPCUA Certificate Authority/CN=NodeOPCUA-CA
                serial:CE:FA:6D:B3:C5:70:1C:A9

            X509v3 Subject Alternative Name: 
                URI:urn:IPAWSDX02:NodeOPCUA-Server, DNS:localhost, DNS:IPAWSDX02
            Netscape Comment: 
                OpenSSL Generated Certificate
            X509v3 Key Usage: critical
                Digital Signature, Non Repudiation, Key Encipherment, Data Encipherment, Key Agreement, Certificate Sign
            X509v3 Extended Key Usage: critical
                TLS Web Server Authentication, TLS Web Client Authentication
    Signature Algorithm: sha256WithRSAEncryption
         1d:f0:21:b5:62:85:55:9d:09:2c:75:e6:9a:9c:cc:60:c0:29:
         10:fd:60:43:ea:4a:5b:97:e9:26:3d:53:09:09:2d:54:8c:23:
         d9:de:dd:9e:b1:5d:b5:09:07:c4:de:13:cb:58:6f:1d:87:be:
         15:a7:22:38:7a:9e:4d:16:d7:93:f4:7c:ff:db:39:c1:83:57:
         54:5f:3c:50:aa:7c:41:71:db:6e:19:f5:be:53:69:23:16:7a:
         3c:a1:26:db:b0:81:73:7f:6f:2d:7b:0b:ca:5d:1f:56:31:50:
         7e:5f:27:b0:a3:b7:86:8a:b6:a3:1e:37:17:fb:85:68:cc:c4:
         31:90:b9:06:3d:d5:61:d5:b8:6f:22:f3:72:10:3b:cb:81:8b:
         6d:a4:dc:ab:83:64:76:09:c1:75:86:db:c2:76:46:f3:06:17:
         62:67:4f:24:04:d6:ff:a5:79:d1:c4:b9:5d:e9:f2:4e:1f:ea:
         c4:d1:77:34:41:6e:d6:9f:0f:5e:50:20:b0:85:6c:31:dc:7b:
         c3:18:c4:89:ed:a6:d5:9e:d1:3f:f7:e0:e2:23:0c:c3:e9:e3:
         e7:3f:6a:84:48:dd:20:9d:26:43:1b:33:c8:0a:cb:00:1f:91:
         a4:27:2c:94:8e:04:d6:fe:9c:3d:3d:e7:01:fe:61:8a:f7:73:
         c2:96:5b:0e
-----BEGIN CERTIFICATE-----
MIIFpDCCBIygAwIBAgICEA4wDQYJKoZIhvcNAQELBQAwczELMAkGA1UEBhMCRlIx
DDAKBgNVBAgTA0lERjEOMAwGA1UEBxMFUGFyaXMxLzAtBgNVBAoTJkxvY2FsIE5P
REUtT1BDVUEgQ2VydGlmaWNhdGUgQXV0aG9yaXR5MRUwEwYDVQQDEwxOb2RlT1BD
VUEtQ0EwIhgPMjAxODA0MTYxMTU2NTFaGA8yMDE5MDQxNjExNTY1MVowNTELMAkG
A1UEBhMCRlIxEjAQBgNVBAoMCU5vZGVPUENVQTESMBAGA1UEAwwJTm9kZU9QQ1VB
MIICIjANBgkqhkiG9w0BAQEFAAOCAg8AMIICCgKCAgEA4If0alBHcCE4YpVooU7N
ferl6xyNp2ZN/Rl0EO7grC/Emg36Ny2/8rYdjsX/rWBHVodRh8oJu9Xqps+FZV7b
kFXUx+anhslZWNtAFbeBe80Xw392s0CitO5JTlHxlVF0vrqUNjOSgqR4pkHjNpZ6
cYzWeSRWlQ+Jq+hTJIA2XXielW5suxkaDAddT7x6B2na8KqfUVs4kQ2bPy4gqHxv
IKBCh2fR9g7y6YXswA5XzOwYvHxx+9XmdyHpB8PfqjFZOwoW1gGS8t/lz8ErX1Hd
AAPWYmObp0LQyAoge+5xrYTu2hpq8JLy02aovpXdSctITua5G4y20310BHkoS9QV
IK3CJBnYw11DvW6VoHe7xRW1aYGG1atMz7wjziT5hi95xBP86qLOQjizc9H1R9k2
eeFvj9cW53R5x9xLgU0uy2cYJ5Gw+CRSdFDe9pqs/pdWJV63JMA/qY5cJIaxggB4
68dJOd1LFtvwh9FrY35hoqSc3+baLb9H6ZFmOtE9RXqxk5NFxbOaObpA/9rqwmvZ
cBo+MAOvCg1wxT21LdJXfkVVQ+Ra8AThBB4mUJCvNntykjMlzV0+cuBo3vAnGPIy
mhi10Q6x0QXwnyLZ2wngFZfRxIoA5q7+BPlNuM+lmdiQ5S7LvHb8tF4u4cMiuSNB
SCv3V5EkllcTt7EJCi/WVVECAwEAAaOCAXowggF2MAwGA1UdEwEB/wQCMAAwHQYD
VR0OBBYEFBvaECDCVQlDmeiEfnHRgRtKUZ7rMIGlBgNVHSMEgZ0wgZqAFCbu9tfF
zlTLSKmKEeWTpFxOYNi6oXekdTBzMQswCQYDVQQGEwJGUjEMMAoGA1UECBMDSURG
MQ4wDAYDVQQHEwVQYXJpczEvMC0GA1UEChMmTG9jYWwgTk9ERS1PUENVQSBDZXJ0
aWZpY2F0ZSBBdXRob3JpdHkxFTATBgNVBAMTDE5vZGVPUENVQS1DQYIJAM76bbPF
cBypMD8GA1UdEQQ4MDaGHnVybjpJUEFXU0RYMDI6Tm9kZU9QQ1VBLVNlcnZlcoIJ
bG9jYWxob3N0gglJUEFXU0RYMDIwLAYJYIZIAYb4QgENBB8WHU9wZW5TU0wgR2Vu
ZXJhdGVkIENlcnRpZmljYXRlMA4GA1UdDwEB/wQEAwIC/DAgBgNVHSUBAf8EFjAU
BggrBgEFBQcDAQYIKwYBBQUHAwIwDQYJKoZIhvcNAQELBQADggEBAB3wIbVihVWd
CSx15pqczGDAKRD9YEPqSluX6SY9UwkJLVSMI9ne3Z6xXbUJB8TeE8tYbx2HvhWn
Ijh6nk0W15P0fP/bOcGDV1RfPFCqfEFx224Z9b5TaSMWejyhJtuwgXN/by17C8pd
H1YxUH5fJ7Cjt4aKtqMeNxf7hWjMxDGQuQY91WHVuG8i83IQO8uBi22k3KuDZHYJ
wXWG28J2RvMGF2JnTyQE1v+ledHEuV3p8k4f6sTRdzRBbtafD15QILCFbDHce8MY
xIntptWe0T/34OIjDMPp4+c/aoRI3SCdJkMbM8gKywAfkaQnLJSOBNb+nD095wH+
YYr3c8KWWw4=
-----END CERTIFICATE-----
