Certificate:
    Data:
        Version: 3 (0x2)
        Serial Number: 4111 (0x100f)
    Signature Algorithm: sha256WithRSAEncryption
        Issuer: O=NodeOPCUA, CN=NodeOPCUA
        Validity
            Not Before: Apr 16 11:56:51 2018 GMT
            Not After : Apr 16 11:56:51 2019 GMT
        Subject: O=NodeOPCUA, CN=NodeOPCUA
        Subject Public Key Info:
            Public Key Algorithm: rsaEncryption
                Public-Key: (4096 bit)
                Modulus:
                    00:e0:87:f4:6a:50:47:70:21:38:62:95:68:a1:4e:
                    cd:7d:ea:e5:eb:1c:8d:a7:66:4d:fd:19:74:10:ee:
                    e0:ac:2f:c4:9a:0d:fa:37:2d:bf:f2:b6:1d:8e:c5:
                    ff:ad:60:47:56:87:51:87:ca:09:bb:d5:ea:a6:cf:
                    85:65:5e:db:90:55:d4:c7:e6:a7:86:c9:59:58:db:
                    40:15:b7:81:7b:cd:17:c3:7f:76:b3:40:a2:b4:ee:
                    49:4e:51:f1:95:51:74:be:ba:94:36:33:92:82:a4:
                    78:a6:41:e3:36:96:7a:71:8c:d6:79:24:56:95:0f:
                    89:ab:e8:53:24:80:36:5d:78:9e:95:6e:6c:bb:19:
                    1a:0c:07:5d:4f:bc:7a:07:69:da:f0:aa:9f:51:5b:
                    38:91:0d:9b:3f:2e:20:a8:7c:6f:20:a0:42:87:67:
                    d1:f6:0e:f2:e9:85:ec:c0:0e:57:cc:ec:18:bc:7c:
                    71:fb:d5:e6:77:21:e9:07:c3:df:aa:31:59:3b:0a:
                    16:d6:01:92:f2:df:e5:cf:c1:2b:5f:51:dd:00:03:
                    d6:62:63:9b:a7:42:d0:c8:0a:20:7b:ee:71:ad:84:
                    ee:da:1a:6a:f0:92:f2:d3:66:a8:be:95:dd:49:cb:
                    48:4e:e6:b9:1b:8c:b6:d3:7d:74:04:79:28:4b:d4:
                    15:20:ad:c2:24:19:d8:c3:5d:43:bd:6e:95:a0:77:
                    bb:c5:15:b5:69:81:86:d5:ab:4c:cf:bc:23:ce:24:
                    f9:86:2f:79:c4:13:fc:ea:a2:ce:42:38:b3:73:d1:
                    f5:47:d9:36:79:e1:6f:8f:d7:16:e7:74:79:c7:dc:
                    4b:81:4d:2e:cb:67:18:27:91:b0:f8:24:52:74:50:
                    de:f6:9a:ac:fe:97:56:25:5e:b7:24:c0:3f:a9:8e:
                    5c:24:86:b1:82:00:78:eb:c7:49:39:dd:4b:16:db:
                    f0:87:d1:6b:63:7e:61:a2:a4:9c:df:e6:da:2d:bf:
                    47:e9:91:66:3a:d1:3d:45:7a:b1:93:93:45:c5:b3:
                    9a:39:ba:40:ff:da:ea:c2:6b:d9:70:1a:3e:30:03:
                    af:0a:0d:70:c5:3d:b5:2d:d2:57:7e:45:55:43:e4:
                    5a:f0:04:e1:04:1e:26:50:90:af:36:7b:72:92:33:
                    25:cd:5d:3e:72:e0:68:de:f0:27:18:f2:32:9a:18:
                    b5:d1:0e:b1:d1:05:f0:9f:22:d9:db:09:e0:15:97:
                    d1:c4:8a:00:e6:ae:fe:04:f9:4d:b8:cf:a5:99:d8:
                    90:e5:2e:cb:bc:76:fc:b4:5e:2e:e1:c3:22:b9:23:
                    41:48:2b:f7:57:91:24:96:57:13:b7:b1:09:0a:2f:
                    d6:55:51
                Exponent: 65537 (0x10001)
        X509v3 extensions:
            X509v3 Basic Constraints: critical
                CA:FALSE
            X509v3 Subject Key Identifier: 
                1B:DA:10:20:C2:55:09:43:99:E8:84:7E:71:D1:81:1B:4A:51:9E:EB
            X509v3 Authority Key Identifier: 
                keyid:1B:DA:10:20:C2:55:09:43:99:E8:84:7E:71:D1:81:1B:4A:51:9E:EB
                DirName:/O=NodeOPCUA/CN=NodeOPCUA
                serial:10:0F

            X509v3 Subject Alternative Name: 
                URI:urn:IPAWSDX02:NodeOPCUA-Server, DNS:localhost, DNS:IPAWSDX02
            Netscape Comment: 
                OpenSSL Generated Certificate
            X509v3 Key Usage: critical
                Digital Signature, Non Repudiation, Key Encipherment, Data Encipherment, Key Agreement, Certificate Sign
            X509v3 Extended Key Usage: critical
                TLS Web Server Authentication, TLS Web Client Authentication
    Signature Algorithm: sha256WithRSAEncryption
         92:d9:2f:d7:1d:73:e0:81:85:94:33:b9:0d:84:5f:41:2f:89:
         b7:a5:66:5f:e0:21:8d:43:80:48:3c:4e:85:35:63:10:13:09:
         f3:15:c9:fd:71:c9:f5:09:f8:71:8d:17:bb:1a:8b:1a:08:22:
         e6:b2:20:e1:3f:fb:8e:46:e5:90:66:6d:c9:1a:06:0d:89:a4:
         3c:05:2f:ea:6d:49:70:66:c3:e6:8c:c1:5c:52:36:26:07:7e:
         85:1d:51:ab:58:c9:54:d9:d8:03:da:de:db:be:14:ef:b6:10:
         f4:30:9f:88:77:40:17:cc:82:60:20:ae:77:8c:c9:d1:ae:b3:
         33:d5:e0:e2:e2:31:a3:df:c8:f0:ce:31:2f:23:c2:9c:57:ec:
         1d:72:79:ed:10:cd:45:88:dc:47:47:ae:30:29:38:03:bc:e8:
         ef:7c:b2:42:34:4b:a1:00:8e:32:28:2b:38:fc:c7:4c:e0:bb:
         b5:0d:b3:be:3e:b6:77:16:a6:bb:a4:3a:3a:e6:01:50:43:4d:
         63:c6:07:df:e2:38:78:dc:4b:72:c9:13:68:39:2d:fd:4f:e7:
         34:d8:d8:47:2a:fd:89:36:05:0a:aa:a5:61:a1:13:9d:ad:3c:
         fb:70:4e:2d:1b:9b:89:4d:e9:db:60:91:ef:82:e0:55:96:8a:
         18:5e:1c:27:7d:b4:c9:6c:1c:85:89:52:2c:5d:7a:f8:c5:1f:
         36:b9:89:6a:4e:b0:f2:a4:8d:39:94:af:3d:a1:f1:9d:62:e7:
         f0:2e:65:c5:04:27:73:fb:1a:7f:1c:9b:7a:cb:b2:d9:3f:b2:
         25:f0:38:b5:a1:5e:c0:ef:c0:99:c6:a9:38:a7:5e:63:8c:6e:
         95:0c:33:45:06:6f:38:25:6a:0d:b2:aa:56:b5:48:c0:fb:77:
         64:60:26:7a:a6:8f:2f:f1:55:b6:b5:18:1c:c2:bb:4a:28:f5:
         6f:f2:2f:87:c2:da:b0:93:48:d4:14:66:d7:02:8d:83:d3:e4:
         5d:61:03:cc:e8:55:3b:a3:ff:6f:96:19:cc:10:70:11:46:1d:
         26:7f:f6:bb:2a:f8:80:29:2c:4b:4b:59:62:59:65:bb:57:c6:
         e4:6b:b1:40:d2:91:d5:53:9c:0e:6e:66:c3:c1:f3:6b:21:89:
         42:d5:03:40:cb:08:ba:8c:1c:47:33:00:5a:94:0b:65:46:7b:
         3b:7b:d0:5d:17:bd:d5:6a:e7:99:91:85:29:56:3a:b6:f6:d6:
         2a:98:d4:97:42:a1:b9:3f:b4:2c:71:64:6b:80:6c:d4:24:58:
         2c:41:d8:7f:e8:5f:2d:48:75:8d:e0:85:9c:d6:26:c8:2c:7a:
         26:95:ea:2f:cd:ea:bb:b2
-----BEGIN CERTIFICATE-----
MIIF9zCCA9+gAwIBAgICEA8wDQYJKoZIhvcNAQELBQAwKDESMBAGA1UEChMJTm9k
ZU9QQ1VBMRIwEAYDVQQDEwlOb2RlT1BDVUEwIhgPMjAxODA0MTYxMTU2NTFaGA8y
MDE5MDQxNjExNTY1MVowKDESMBAGA1UEChMJTm9kZU9QQ1VBMRIwEAYDVQQDEwlO
b2RlT1BDVUEwggIiMA0GCSqGSIb3DQEBAQUAA4ICDwAwggIKAoICAQDgh/RqUEdw
IThilWihTs196uXrHI2nZk39GXQQ7uCsL8SaDfo3Lb/yth2Oxf+tYEdWh1GHygm7
1eqmz4VlXtuQVdTH5qeGyVlY20AVt4F7zRfDf3azQKK07klOUfGVUXS+upQ2M5KC
pHimQeM2lnpxjNZ5JFaVD4mr6FMkgDZdeJ6Vbmy7GRoMB11PvHoHadrwqp9RWziR
DZs/LiCofG8goEKHZ9H2DvLphezADlfM7Bi8fHH71eZ3IekHw9+qMVk7ChbWAZLy
3+XPwStfUd0AA9ZiY5unQtDICiB77nGthO7aGmrwkvLTZqi+ld1Jy0hO5rkbjLbT
fXQEeShL1BUgrcIkGdjDXUO9bpWgd7vFFbVpgYbVq0zPvCPOJPmGL3nEE/zqos5C
OLNz0fVH2TZ54W+P1xbndHnH3EuBTS7LZxgnkbD4JFJ0UN72mqz+l1YlXrckwD+p
jlwkhrGCAHjrx0k53UsW2/CH0WtjfmGipJzf5totv0fpkWY60T1FerGTk0XFs5o5
ukD/2urCa9lwGj4wA68KDXDFPbUt0ld+RVVD5FrwBOEEHiZQkK82e3KSMyXNXT5y
4Gje8CcY8jKaGLXRDrHRBfCfItnbCeAVl9HEigDmrv4E+U24z6WZ2JDlLsu8dvy0
Xi7hwyK5I0FIK/dXkSSWVxO3sQkKL9ZVUQIDAQABo4IBJTCCASEwDAYDVR0TAQH/
BAIwADAdBgNVHQ4EFgQUG9oQIMJVCUOZ6IR+cdGBG0pRnuswUQYDVR0jBEowSIAU
G9oQIMJVCUOZ6IR+cdGBG0pRnuuhLKQqMCgxEjAQBgNVBAoTCU5vZGVPUENVQTES
MBAGA1UEAxMJTm9kZU9QQ1VBggIQDzA/BgNVHREEODA2hh51cm46SVBBV1NEWDAy
Ok5vZGVPUENVQS1TZXJ2ZXKCCWxvY2FsaG9zdIIJSVBBV1NEWDAyMCwGCWCGSAGG
+EIBDQQfFh1PcGVuU1NMIEdlbmVyYXRlZCBDZXJ0aWZpY2F0ZTAOBgNVHQ8BAf8E
BAMCAvwwIAYDVR0lAQH/BBYwFAYIKwYBBQUHAwEGCCsGAQUFBwMCMA0GCSqGSIb3
DQEBCwUAA4ICAQCS2S/XHXPggYWUM7kNhF9BL4m3pWZf4CGNQ4BIPE6FNWMQEwnz
Fcn9ccn1CfhxjRe7GosaCCLmsiDhP/uORuWQZm3JGgYNiaQ8BS/qbUlwZsPmjMFc
UjYmB36FHVGrWMlU2dgD2t7bvhTvthD0MJ+Id0AXzIJgIK53jMnRrrMz1eDi4jGj
38jwzjEvI8KcV+wdcnntEM1FiNxHR64wKTgDvOjvfLJCNEuhAI4yKCs4/MdM4Lu1
DbO+PrZ3Fqa7pDo65gFQQ01jxgff4jh43EtyyRNoOS39T+c02NhHKv2JNgUKqqVh
oROdrTz7cE4tG5uJTenbYJHvguBVlooYXhwnfbTJbByFiVIsXXr4xR82uYlqTrDy
pI05lK89ofGdYufwLmXFBCdz+xp/HJt6y7LZP7Il8Di1oV7A78CZxqk4p15jjG6V
DDNFBm84JWoNsqpWtUjA+3dkYCZ6po8v8VW2tRgcwrtKKPVv8i+Hwtqwk0jUFGbX
Ao2D0+RdYQPM6FU7o/9vlhnMEHARRh0mf/a7KviAKSxLS1liWWW7V8bka7FA0pHV
U5wObmbDwfNrIYlC1QNAywi6jBxHMwBalAtlRns7e9BdF73VaueZkYUpVjq29tYq
mNSXQqG5P7QscWRrgGzUJFgsQdh/6F8tSHWN4IWc1ibILHomleovzeq7sg==
-----END CERTIFICATE-----
