Certificate:
    Data:
        Version: 3 (0x2)
        Serial Number: 4112 (0x1010)
    Signature Algorithm: sha256WithRSAEncryption
        Issuer: C=FR, ST=IDF, L=Paris, O=Local NODE-OPCUA Certificate Authority, CN=NodeOPCUA-CA
        Validity
            Not Before: Apr 16 11:56:51 2018 GMT
            Not After : Apr 16 11:56:51 2019 GMT
        Subject: C=FR, O=NodeOPCUA, CN=NodeOPCUA
        Subject Public Key Info:
            Public Key Algorithm: rsaEncryption
                Public-Key: (1024 bit)
                Modulus:
                    00:9c:6c:ce:6c:df:ee:fe:04:8c:e7:d1:41:bd:e9:
                    3c:d3:f2:13:f8:62:14:9f:4b:f4:05:07:25:43:0c:
                    87:47:c1:2d:b2:6d:e1:ae:d4:1a:d2:ec:c6:b3:28:
                    e3:b1:e6:9e:3f:8e:36:e5:fc:e5:eb:54:d4:3e:6b:
                    1e:42:55:b4:ae:69:31:ad:b2:aa:8d:b9:f6:4c:f3:
                    ec:e1:7e:c7:d2:6d:61:32:dc:8b:6c:aa:20:ce:a0:
                    4b:06:9c:24:6b:b2:b9:d5:4c:fe:ef:74:54:36:2e:
                    9a:1a:1a:d6:00:28:ba:9c:54:62:50:b2:f3:91:3a:
                    ca:69:a9:c9:95:1f:1a:7a:07
                Exponent: 65537 (0x10001)
        X509v3 extensions:
            X509v3 Basic Constraints: critical
                CA:FALSE
            X509v3 Subject Key Identifier: 
                39:A1:C8:8C:BF:23:0C:FD:C8:6C:A7:14:F8:F7:EB:A3:F2:A1:17:DD
            X509v3 Authority Key Identifier: 
                keyid:26:EE:F6:D7:C5:CE:54:CB:48:A9:8A:11:E5:93:A4:5C:4E:60:D8:BA
                DirName:/C=FR/ST=IDF/L=Paris/O=Local NODE-OPCUA Certificate Authority/CN=NodeOPCUA-CA
                serial:CE:FA:6D:B3:C5:70:1C:A9

            X509v3 Subject Alternative Name: 
                URI:urn:IPAWSDX02:NodeOPCUA-DiscoveryServer, DNS:localhost, DNS:IPAWSDX02
            Netscape Comment: 
                OpenSSL Generated Certificate
            X509v3 Key Usage: critical
                Digital Signature, Non Repudiation, Key Encipherment, Data Encipherment, Key Agreement, Certificate Sign
            X509v3 Extended Key Usage: critical
                TLS Web Server Authentication, TLS Web Client Authentication
    Signature Algorithm: sha256WithRSAEncryption
         30:56:a4:c5:4a:ba:b3:87:70:c4:ae:09:80:46:5c:04:dc:ad:
         5c:a1:f9:20:0c:67:01:fb:2d:0a:15:05:7a:c7:7e:06:b7:03:
         54:bb:4b:8c:95:ed:8f:03:dc:8d:14:ba:86:69:95:19:fe:64:
         68:d9:70:d9:52:c3:4e:8f:92:f6:25:81:22:aa:8c:32:37:80:
         db:c6:7d:48:49:85:56:61:ac:e6:21:3a:8d:1f:80:0a:25:ae:
         4e:44:ba:27:5e:8a:ec:4f:02:49:1b:aa:71:b5:a2:b3:e7:5c:
         9b:ef:46:b0:d1:8e:16:ab:bd:a4:f5:3c:87:85:8e:51:11:d9:
         72:66:76:10:c2:b9:c2:eb:ba:1c:bf:09:f4:7b:7b:44:81:50:
         60:49:f2:59:0d:40:58:5f:72:a6:a6:40:5a:c7:d3:30:57:6e:
         34:28:f8:a0:54:58:bc:e6:6e:74:fd:b9:51:dd:be:18:c8:a0:
         c4:fc:d0:ad:b8:fe:7b:cf:e3:7c:bf:6d:5a:37:3d:05:d5:93:
         d5:5c:98:f7:7b:f3:04:ba:56:e0:dc:0f:7f:88:c1:fa:ee:c2:
         00:72:e5:23:70:27:1b:8a:ee:85:cf:45:87:90:2f:5d:bf:cd:
         75:e7:2b:14:b9:d3:72:66:a6:4b:46:a0:38:b3:b2:2a:78:e4:
         c7:73:15:78
-----BEGIN CERTIFICATE-----
MIIEKTCCAxGgAwIBAgICEBAwDQYJKoZIhvcNAQELBQAwczELMAkGA1UEBhMCRlIx
DDAKBgNVBAgTA0lERjEOMAwGA1UEBxMFUGFyaXMxLzAtBgNVBAoTJkxvY2FsIE5P
REUtT1BDVUEgQ2VydGlmaWNhdGUgQXV0aG9yaXR5MRUwEwYDVQQDEwxOb2RlT1BD
VUEtQ0EwIhgPMjAxODA0MTYxMTU2NTFaGA8yMDE5MDQxNjExNTY1MVowNTELMAkG
A1UEBhMCRlIxEjAQBgNVBAoMCU5vZGVPUENVQTESMBAGA1UEAwwJTm9kZU9QQ1VB
MIGfMA0GCSqGSIb3DQEBAQUAA4GNADCBiQKBgQCcbM5s3+7+BIzn0UG96TzT8hP4
YhSfS/QFByVDDIdHwS2ybeGu1BrS7MazKOOx5p4/jjbl/OXrVNQ+ax5CVbSuaTGt
sqqNufZM8+zhfsfSbWEy3ItsqiDOoEsGnCRrsrnVTP7vdFQ2LpoaGtYAKLqcVGJQ
svOROsppqcmVHxp6BwIDAQABo4IBgzCCAX8wDAYDVR0TAQH/BAIwADAdBgNVHQ4E
FgQUOaHIjL8jDP3IbKcU+Pfro/KhF90wgaUGA1UdIwSBnTCBmoAUJu7218XOVMtI
qYoR5ZOkXE5g2Lqhd6R1MHMxCzAJBgNVBAYTAkZSMQwwCgYDVQQIEwNJREYxDjAM
BgNVBAcTBVBhcmlzMS8wLQYDVQQKEyZMb2NhbCBOT0RFLU9QQ1VBIENlcnRpZmlj
YXRlIEF1dGhvcml0eTEVMBMGA1UEAxMMTm9kZU9QQ1VBLUNBggkAzvpts8VwHKkw
SAYDVR0RBEEwP4YndXJuOklQQVdTRFgwMjpOb2RlT1BDVUEtRGlzY292ZXJ5U2Vy
dmVygglsb2NhbGhvc3SCCUlQQVdTRFgwMjAsBglghkgBhvhCAQ0EHxYdT3BlblNT
TCBHZW5lcmF0ZWQgQ2VydGlmaWNhdGUwDgYDVR0PAQH/BAQDAgL8MCAGA1UdJQEB
/wQWMBQGCCsGAQUFBwMBBggrBgEFBQcDAjANBgkqhkiG9w0BAQsFAAOCAQEAMFak
xUq6s4dwxK4JgEZcBNytXKH5IAxnAfstChUFesd+BrcDVLtLjJXtjwPcjRS6hmmV
Gf5kaNlw2VLDTo+S9iWBIqqMMjeA28Z9SEmFVmGs5iE6jR+ACiWuTkS6J16K7E8C
SRuqcbWis+dcm+9GsNGOFqu9pPU8h4WOURHZcmZ2EMK5wuu6HL8J9Ht7RIFQYEny
WQ1AWF9ypqZAWsfTMFduNCj4oFRYvOZudP25Ud2+GMigxPzQrbj+e8/jfL9tWjc9
BdWT1VyY93vzBLpW4NwPf4jB+u7CAHLlI3AnG4ruhc9Fh5AvXb/NdecrFLnTcmam
S0agOLOyKnjkx3MVeA==
-----END CERTIFICATE-----
