Certificate:
    Data:
        Version: 3 (0x2)
        Serial Number: 4113 (0x1011)
    Signature Algorithm: sha256WithRSAEncryption
        Issuer: O=NodeOPCUA, CN=NodeOPCUA
        Validity
            Not Before: Apr 16 11:56:51 2018 GMT
            Not After : Apr 16 11:56:51 2019 GMT
        Subject: O=NodeOPCUA, CN=NodeOPCUA
        Subject Public Key Info:
            Public Key Algorithm: rsaEncryption
                Public-Key: (1024 bit)
                Modulus:
                    00:9c:6c:ce:6c:df:ee:fe:04:8c:e7:d1:41:bd:e9:
                    3c:d3:f2:13:f8:62:14:9f:4b:f4:05:07:25:43:0c:
                    87:47:c1:2d:b2:6d:e1:ae:d4:1a:d2:ec:c6:b3:28:
                    e3:b1:e6:9e:3f:8e:36:e5:fc:e5:eb:54:d4:3e:6b:
                    1e:42:55:b4:ae:69:31:ad:b2:aa:8d:b9:f6:4c:f3:
                    ec:e1:7e:c7:d2:6d:61:32:dc:8b:6c:aa:20:ce:a0:
                    4b:06:9c:24:6b:b2:b9:d5:4c:fe:ef:74:54:36:2e:
                    9a:1a:1a:d6:00:28:ba:9c:54:62:50:b2:f3:91:3a:
                    ca:69:a9:c9:95:1f:1a:7a:07
                Exponent: 65537 (0x10001)
        X509v3 extensions:
            X509v3 Basic Constraints: critical
                CA:FALSE
            X509v3 Subject Key Identifier: 
                39:A1:C8:8C:BF:23:0C:FD:C8:6C:A7:14:F8:F7:EB:A3:F2:A1:17:DD
            X509v3 Authority Key Identifier: 
                keyid:39:A1:C8:8C:BF:23:0C:FD:C8:6C:A7:14:F8:F7:EB:A3:F2:A1:17:DD
                DirName:/O=NodeOPCUA/CN=NodeOPCUA
                serial:10:11

            X509v3 Subject Alternative Name: 
                URI:urn:IPAWSDX02:NodeOPCUA-DiscoveryServer, DNS:localhost, DNS:IPAWSDX02
            Netscape Comment: 
                OpenSSL Generated Certificate
            X509v3 Key Usage: critical
                Digital Signature, Non Repudiation, Key Encipherment, Data Encipherment, Key Agreement, Certificate Sign
            X509v3 Extended Key Usage: critical
                TLS Web Server Authentication, TLS Web Client Authentication
    Signature Algorithm: sha256WithRSAEncryption
         28:dd:98:5d:7f:04:67:b0:5d:67:ef:09:8e:06:3b:89:a9:07:
         d4:4d:ff:45:f4:a3:29:b6:f2:44:12:14:d4:a8:40:bc:82:d8:
         2f:4f:6f:86:82:9e:38:80:ea:a3:fb:59:2b:ec:7c:5d:e3:53:
         c4:dd:37:06:fd:5c:a8:a5:a9:e5:c2:49:da:ba:ab:4d:df:52:
         50:91:89:73:37:29:6b:71:36:32:a4:54:92:a9:43:80:78:6c:
         69:da:7c:7a:9e:f5:20:1a:2e:81:74:ee:f1:82:ce:24:71:03:
         97:c6:7d:33:bc:db:a4:a8:7f:55:7c:c5:9b:ec:c1:05:6b:f5:
         79:d2
-----BEGIN CERTIFICATE-----
MIIC+zCCAmSgAwIBAgICEBEwDQYJKoZIhvcNAQELBQAwKDESMBAGA1UEChMJTm9k
ZU9QQ1VBMRIwEAYDVQQDEwlOb2RlT1BDVUEwIhgPMjAxODA0MTYxMTU2NTFaGA8y
MDE5MDQxNjExNTY1MVowKDESMBAGA1UEChMJTm9kZU9QQ1VBMRIwEAYDVQQDEwlO
b2RlT1BDVUEwgZ8wDQYJKoZIhvcNAQEBBQADgY0AMIGJAoGBAJxszmzf7v4EjOfR
Qb3pPNPyE/hiFJ9L9AUHJUMMh0fBLbJt4a7UGtLsxrMo47Hmnj+ONuX85etU1D5r
HkJVtK5pMa2yqo259kzz7OF+x9JtYTLci2yqIM6gSwacJGuyudVM/u90VDYumhoa
1gAoupxUYlCy85E6ymmpyZUfGnoHAgMBAAGjggEuMIIBKjAMBgNVHRMBAf8EAjAA
MB0GA1UdDgQWBBQ5ociMvyMM/chspxT49+uj8qEX3TBRBgNVHSMESjBIgBQ5ociM
vyMM/chspxT49+uj8qEX3aEspCowKDESMBAGA1UEChMJTm9kZU9QQ1VBMRIwEAYD
VQQDEwlOb2RlT1BDVUGCAhARMEgGA1UdEQRBMD+GJ3VybjpJUEFXU0RYMDI6Tm9k
ZU9QQ1VBLURpc2NvdmVyeVNlcnZlcoIJbG9jYWxob3N0gglJUEFXU0RYMDIwLAYJ
YIZIAYb4QgENBB8WHU9wZW5TU0wgR2VuZXJhdGVkIENlcnRpZmljYXRlMA4GA1Ud
DwEB/wQEAwIC/DAgBgNVHSUBAf8EFjAUBggrBgEFBQcDAQYIKwYBBQUHAwIwDQYJ
KoZIhvcNAQELBQADgYEAKN2YXX8EZ7BdZ+8JjgY7iakH1E3/RfSjKbbyRBIU1KhA
vILYL09vhoKeOIDqo/tZK+x8XeNTxN03Bv1cqKWp5cJJ2rqrTd9SUJGJczcpa3E2
MqRUkqlDgHhsadp8ep71IBougXTu8YLOJHEDl8Z9M7zbpKh/VXzFm+zBBWv1edI=
-----END CERTIFICATE-----
