Certificate:
    Data:
        Version: 3 (0x2)
        Serial Number: 4116 (0x1014)
    Signature Algorithm: sha256WithRSAEncryption
        Issuer: C=FR, ST=IDF, L=Paris, O=Local NODE-OPCUA Certificate Authority, CN=NodeOPCUA-CA
        Validity
            Not Before: Apr 16 11:56:51 2018 GMT
            Not After : Apr 16 11:56:51 2019 GMT
        Subject: C=FR, O=NodeOPCUA, CN=NodeOPCUA
        Subject Public Key Info:
            Public Key Algorithm: rsaEncryption
                Public-Key: (3072 bit)
                Modulus:
                    00:9b:a3:da:1c:e8:e2:e2:8c:a3:d7:17:f5:36:1d:
                    74:26:8d:fb:dc:2a:e1:1e:dd:e6:ec:a2:e3:d8:30:
                    46:4c:92:2b:40:d2:21:51:d3:7f:0f:47:8f:f0:e5:
                    52:60:33:0c:1e:56:5a:76:6e:1d:b5:cc:d3:98:bd:
                    ae:3e:79:bf:3b:e1:e1:ff:e2:1a:0e:dd:a0:08:21:
                    f3:41:9d:39:68:c7:e0:5d:1c:ee:a4:d4:9b:97:dc:
                    17:a0:58:a9:b9:61:fa:2b:43:67:8d:ae:4c:43:26:
                    d7:f2:50:d7:02:83:cd:ed:31:52:84:e0:25:4b:d9:
                    63:fa:7d:a1:e6:95:a4:19:e2:7b:ff:75:e9:6f:ec:
                    28:22:b6:30:e9:3e:db:bb:35:82:6f:3f:10:40:a1:
                    67:fb:39:12:e2:6f:91:0e:3a:d3:94:e2:95:d8:a4:
                    cc:f9:80:7e:95:58:d7:91:6c:a2:96:e9:28:89:db:
                    c9:1f:dc:16:ca:c7:64:19:c8:e1:5d:82:20:b4:f0:
                    a0:15:c1:74:b9:8a:9e:dc:1f:f8:83:63:3e:e7:b0:
                    2f:11:c2:a1:2a:5b:19:eb:b7:cd:c8:80:02:b0:21:
                    14:79:de:36:2d:dc:83:dd:9d:34:7a:36:62:64:ca:
                    70:bb:0e:e5:a2:e2:37:80:8d:85:93:87:5e:3e:79:
                    b3:3f:5b:69:c5:01:80:84:a0:ea:e6:c4:51:8e:7a:
                    ee:9b:3f:41:4b:52:12:d7:d5:32:1a:32:4a:0f:b4:
                    1c:41:2e:d6:32:01:2c:46:b8:ef:83:58:ee:77:13:
                    c7:29:bd:7d:aa:c4:21:06:58:26:be:44:68:e2:21:
                    c4:81:c2:a5:3f:d5:8e:cc:9c:d4:73:ec:a8:08:35:
                    fc:4a:a8:c1:62:b0:1a:f7:4d:4d:4b:88:5e:40:c5:
                    be:5e:b8:4f:e4:1c:03:2c:25:1e:65:51:16:2b:27:
                    41:b4:93:96:df:35:d1:9e:bb:b9:87:8e:e0:69:2e:
                    04:38:f1:c5:dd:ac:84:88:76:af
                Exponent: 65537 (0x10001)
        X509v3 extensions:
            X509v3 Basic Constraints: critical
                CA:FALSE
            X509v3 Subject Key Identifier: 
                6D:79:B3:69:3D:1A:F6:5F:52:62:61:CE:1F:33:73:58:FB:3F:E2:A5
            X509v3 Authority Key Identifier: 
                keyid:26:EE:F6:D7:C5:CE:54:CB:48:A9:8A:11:E5:93:A4:5C:4E:60:D8:BA
                DirName:/C=FR/ST=IDF/L=Paris/O=Local NODE-OPCUA Certificate Authority/CN=NodeOPCUA-CA
                serial:CE:FA:6D:B3:C5:70:1C:A9

            X509v3 Subject Alternative Name: 
                URI:urn:IPAWSDX02:NodeOPCUA-DiscoveryServer, DNS:localhost, DNS:IPAWSDX02
            Netscape Comment: 
                OpenSSL Generated Certificate
            X509v3 Key Usage: critical
                Digital Signature, Non Repudiation, Key Encipherment, Data Encipherment, Key Agreement, Certificate Sign
            X509v3 Extended Key Usage: critical
                TLS Web Server Authentication, TLS Web Client Authentication
    Signature Algorithm: sha256WithRSAEncryption
         77:31:ae:c2:a9:4f:51:dc:f5:3e:c2:12:82:5a:65:f9:f2:92:
         b0:18:16:89:2d:ab:42:fa:82:48:3a:21:d1:0c:6e:d5:bd:43:
         4a:28:24:d2:9b:02:c2:e0:78:50:d2:bc:72:5f:22:57:9b:b0:
         10:cc:8a:b4:15:c1:d1:9d:f3:9b:46:c3:46:e1:e5:23:34:7f:
         ea:e8:7d:d4:32:ff:c0:36:ec:a6:2a:c6:16:a1:99:7a:eb:3a:
         9c:a3:c9:00:b6:99:cd:6a:9b:11:ed:3b:67:59:1c:5b:54:74:
         83:a6:c8:d0:4a:fe:da:61:f2:90:42:8e:b1:ed:37:d7:95:58:
         9d:77:7a:8d:5d:d3:04:71:62:13:eb:e5:16:a0:54:ef:d2:51:
         92:22:99:67:d2:5b:a7:4f:d1:d5:3d:bc:9a:bd:25:55:16:c3:
         a3:ac:fa:26:a9:c4:65:4b:c9:c5:ca:66:1f:e6:49:49:d5:ec:
         d4:1d:f1:df:c2:2e:e7:9a:ba:1d:aa:fa:38:8f:d4:d9:77:f0:
         a6:27:7c:31:4b:e6:55:2b:7d:cf:b8:43:d2:b2:a3:9e:70:f7:
         f5:3d:05:d7:53:e4:7a:ee:fa:4b:1f:79:56:99:80:72:6d:1e:
         bf:cd:58:b7:c5:8d:54:11:f8:15:0f:05:10:ae:3e:d2:15:d5:
         44:f0:6c:e6
-----BEGIN CERTIFICATE-----
MIIFLTCCBBWgAwIBAgICEBQwDQYJKoZIhvcNAQELBQAwczELMAkGA1UEBhMCRlIx
DDAKBgNVBAgTA0lERjEOMAwGA1UEBxMFUGFyaXMxLzAtBgNVBAoTJkxvY2FsIE5P
REUtT1BDVUEgQ2VydGlmaWNhdGUgQXV0aG9yaXR5MRUwEwYDVQQDEwxOb2RlT1BD
VUEtQ0EwIhgPMjAxODA0MTYxMTU2NTFaGA8yMDE5MDQxNjExNTY1MVowNTELMAkG
A1UEBhMCRlIxEjAQBgNVBAoMCU5vZGVPUENVQTESMBAGA1UEAwwJTm9kZU9QQ1VB
MIIBojANBgkqhkiG9w0BAQEFAAOCAY8AMIIBigKCAYEAm6PaHOji4oyj1xf1Nh10
Jo373CrhHt3m7KLj2DBGTJIrQNIhUdN/D0eP8OVSYDMMHlZadm4dtczTmL2uPnm/
O+Hh/+IaDt2gCCHzQZ05aMfgXRzupNSbl9wXoFipuWH6K0Nnja5MQybX8lDXAoPN
7TFShOAlS9lj+n2h5pWkGeJ7/3Xpb+woIrYw6T7buzWCbz8QQKFn+zkS4m+RDjrT
lOKV2KTM+YB+lVjXkWyilukoidvJH9wWysdkGcjhXYIgtPCgFcF0uYqe3B/4g2M+
57AvEcKhKlsZ67fNyIACsCEUed42LdyD3Z00ejZiZMpwuw7louI3gI2Fk4dePnmz
P1tpxQGAhKDq5sRRjnrumz9BS1IS19UyGjJKD7QcQS7WMgEsRrjvg1judxPHKb19
qsQhBlgmvkRo4iHEgcKlP9WOzJzUc+yoCDX8SqjBYrAa901NS4heQMW+XrhP5BwD
LCUeZVEWKydBtJOW3zXRnru5h47gaS4EOPHF3ayEiHavAgMBAAGjggGDMIIBfzAM
BgNVHRMBAf8EAjAAMB0GA1UdDgQWBBRtebNpPRr2X1JiYc4fM3NY+z/ipTCBpQYD
VR0jBIGdMIGagBQm7vbXxc5Uy0ipihHlk6RcTmDYuqF3pHUwczELMAkGA1UEBhMC
RlIxDDAKBgNVBAgTA0lERjEOMAwGA1UEBxMFUGFyaXMxLzAtBgNVBAoTJkxvY2Fs
IE5PREUtT1BDVUEgQ2VydGlmaWNhdGUgQXV0aG9yaXR5MRUwEwYDVQQDEwxOb2Rl
T1BDVUEtQ0GCCQDO+m2zxXAcqTBIBgNVHREEQTA/hid1cm46SVBBV1NEWDAyOk5v
ZGVPUENVQS1EaXNjb3ZlcnlTZXJ2ZXKCCWxvY2FsaG9zdIIJSVBBV1NEWDAyMCwG
CWCGSAGG+EIBDQQfFh1PcGVuU1NMIEdlbmVyYXRlZCBDZXJ0aWZpY2F0ZTAOBgNV
HQ8BAf8EBAMCAvwwIAYDVR0lAQH/BBYwFAYIKwYBBQUHAwEGCCsGAQUFBwMCMA0G
CSqGSIb3DQEBCwUAA4IBAQB3Ma7CqU9R3PU+whKCWmX58pKwGBaJLatC+oJIOiHR
DG7VvUNKKCTSmwLC4HhQ0rxyXyJXm7AQzIq0FcHRnfObRsNG4eUjNH/q6H3UMv/A
NuymKsYWoZl66zqco8kAtpnNapsR7TtnWRxbVHSDpsjQSv7aYfKQQo6x7TfXlVid
d3qNXdMEcWIT6+UWoFTv0lGSIpln0lunT9HVPbyavSVVFsOjrPomqcRlS8nFymYf
5klJ1ezUHfHfwi7nmrodqvo4j9TZd/CmJ3wxS+ZVK33PuEPSsqOecPf1PQXXU+R6
7vpLH3lWmYBybR6/zVi3xY1UEfgVDwUQrj7SFdVE8Gzm
-----END CERTIFICATE-----
