Certificate:
    Data:
        Version: 3 (0x2)
        Serial Number: 4117 (0x1015)
    Signature Algorithm: sha256WithRSAEncryption
        Issuer: O=NodeOPCUA, CN=NodeOPCUA
        Validity
            Not Before: Apr 16 11:56:51 2018 GMT
            Not After : Apr 16 11:56:51 2019 GMT
        Subject: O=NodeOPCUA, CN=NodeOPCUA
        Subject Public Key Info:
            Public Key Algorithm: rsaEncryption
                Public-Key: (3072 bit)
                Modulus:
                    00:9b:a3:da:1c:e8:e2:e2:8c:a3:d7:17:f5:36:1d:
                    74:26:8d:fb:dc:2a:e1:1e:dd:e6:ec:a2:e3:d8:30:
                    46:4c:92:2b:40:d2:21:51:d3:7f:0f:47:8f:f0:e5:
                    52:60:33:0c:1e:56:5a:76:6e:1d:b5:cc:d3:98:bd:
                    ae:3e:79:bf:3b:e1:e1:ff:e2:1a:0e:dd:a0:08:21:
                    f3:41:9d:39:68:c7:e0:5d:1c:ee:a4:d4:9b:97:dc:
                    17:a0:58:a9:b9:61:fa:2b:43:67:8d:ae:4c:43:26:
                    d7:f2:50:d7:02:83:cd:ed:31:52:84:e0:25:4b:d9:
                    63:fa:7d:a1:e6:95:a4:19:e2:7b:ff:75:e9:6f:ec:
                    28:22:b6:30:e9:3e:db:bb:35:82:6f:3f:10:40:a1:
                    67:fb:39:12:e2:6f:91:0e:3a:d3:94:e2:95:d8:a4:
                    cc:f9:80:7e:95:58:d7:91:6c:a2:96:e9:28:89:db:
                    c9:1f:dc:16:ca:c7:64:19:c8:e1:5d:82:20:b4:f0:
                    a0:15:c1:74:b9:8a:9e:dc:1f:f8:83:63:3e:e7:b0:
                    2f:11:c2:a1:2a:5b:19:eb:b7:cd:c8:80:02:b0:21:
                    14:79:de:36:2d:dc:83:dd:9d:34:7a:36:62:64:ca:
                    70:bb:0e:e5:a2:e2:37:80:8d:85:93:87:5e:3e:79:
                    b3:3f:5b:69:c5:01:80:84:a0:ea:e6:c4:51:8e:7a:
                    ee:9b:3f:41:4b:52:12:d7:d5:32:1a:32:4a:0f:b4:
                    1c:41:2e:d6:32:01:2c:46:b8:ef:83:58:ee:77:13:
                    c7:29:bd:7d:aa:c4:21:06:58:26:be:44:68:e2:21:
                    c4:81:c2:a5:3f:d5:8e:cc:9c:d4:73:ec:a8:08:35:
                    fc:4a:a8:c1:62:b0:1a:f7:4d:4d:4b:88:5e:40:c5:
                    be:5e:b8:4f:e4:1c:03:2c:25:1e:65:51:16:2b:27:
                    41:b4:93:96:df:35:d1:9e:bb:b9:87:8e:e0:69:2e:
                    04:38:f1:c5:dd:ac:84:88:76:af
                Exponent: 65537 (0x10001)
        X509v3 extensions:
            X509v3 Basic Constraints: critical
                CA:FALSE
            X509v3 Subject Key Identifier: 
                6D:79:B3:69:3D:1A:F6:5F:52:62:61:CE:1F:33:73:58:FB:3F:E2:A5
            X509v3 Authority Key Identifier: 
                keyid:6D:79:B3:69:3D:1A:F6:5F:52:62:61:CE:1F:33:73:58:FB:3F:E2:A5
                DirName:/O=NodeOPCUA/CN=NodeOPCUA
                serial:10:15

            X509v3 Subject Alternative Name: 
                URI:urn:IPAWSDX02:NodeOPCUA-DiscoveryServer, DNS:localhost, DNS:IPAWSDX02
            Netscape Comment: 
                OpenSSL Generated Certificate
            X509v3 Key Usage: critical
                Digital Signature, Non Repudiation, Key Encipherment, Data Encipherment, Key Agreement, Certificate Sign
            X509v3 Extended Key Usage: critical
                TLS Web Server Authentication, TLS Web Client Authentication
    Signature Algorithm: sha256WithRSAEncryption
         73:99:b9:bf:3b:09:ab:8e:13:d1:be:1a:6a:95:d0:c6:3d:da:
         31:fb:f5:8d:94:30:dd:51:e9:f1:45:0a:3e:1b:77:df:f7:b5:
         53:ce:d8:49:63:14:bb:88:fe:f8:c1:be:f4:c1:03:20:37:e6:
         e9:2a:b2:08:33:66:69:d0:16:9f:38:e2:6d:b9:56:78:79:da:
         0b:93:f4:b1:87:22:38:44:e1:7e:5a:03:a9:79:5f:f2:0e:bd:
         ec:70:b3:c2:7c:e5:70:2d:b4:24:07:33:0b:bf:ed:c3:1a:04:
         e1:64:3a:cd:f3:54:0f:80:a0:30:82:55:38:c7:8b:d1:40:7d:
         f8:91:a1:05:28:93:ae:1a:09:97:0a:45:4c:e1:7b:f6:12:e7:
         ac:83:4d:dc:7c:2d:20:63:eb:cf:03:5a:b2:fe:7c:4b:00:a9:
         6f:9b:86:ad:63:80:0c:62:00:dc:89:b4:58:58:3a:a2:6d:9e:
         8e:a1:84:56:24:fc:17:1d:49:38:93:b5:97:32:6d:90:49:8b:
         3a:09:87:a8:f0:b6:e3:fe:0e:61:1d:c6:1d:ad:b2:3f:7d:a8:
         a1:a3:b2:bd:54:d9:59:57:dd:0c:73:2d:f2:90:c6:00:19:cf:
         cd:04:61:cc:ef:04:e8:03:e8:cd:8c:24:fc:79:0f:c0:4e:d6:
         57:71:c6:e6:e0:0a:ed:e0:20:9c:55:96:eb:e4:79:11:db:4e:
         06:ed:3f:90:95:23:31:13:14:49:23:70:c8:98:41:39:0a:0e:
         e3:e1:79:c5:1b:b0:ae:6c:7b:38:76:2d:34:e2:0b:82:07:d0:
         46:e8:8d:02:2f:73:b8:ba:34:7e:09:d7:ae:fb:1b:9b:ac:b7:
         b0:db:75:2e:f7:3e:0c:f3:d8:4e:a3:76:45:a6:b9:dd:18:3d:
         ee:43:96:0e:2e:e6:05:50:f4:f5:d1:8f:75:32:14:8a:9f:78:
         0b:31:78:7f:c7:7e:e6:53:e2:62:f5:10:1b:a4:d8:07:ba:48:
         c0:15:c8:a7:26:e8
-----BEGIN CERTIFICATE-----
MIIFADCCA2igAwIBAgICEBUwDQYJKoZIhvcNAQELBQAwKDESMBAGA1UEChMJTm9k
ZU9QQ1VBMRIwEAYDVQQDEwlOb2RlT1BDVUEwIhgPMjAxODA0MTYxMTU2NTFaGA8y
MDE5MDQxNjExNTY1MVowKDESMBAGA1UEChMJTm9kZU9QQ1VBMRIwEAYDVQQDEwlO
b2RlT1BDVUEwggGiMA0GCSqGSIb3DQEBAQUAA4IBjwAwggGKAoIBgQCbo9oc6OLi
jKPXF/U2HXQmjfvcKuEe3ebsouPYMEZMkitA0iFR038PR4/w5VJgMwweVlp2bh21
zNOYva4+eb874eH/4hoO3aAIIfNBnTlox+BdHO6k1JuX3BegWKm5YforQ2eNrkxD
JtfyUNcCg83tMVKE4CVL2WP6faHmlaQZ4nv/delv7CgitjDpPtu7NYJvPxBAoWf7
ORLib5EOOtOU4pXYpMz5gH6VWNeRbKKW6SiJ28kf3BbKx2QZyOFdgiC08KAVwXS5
ip7cH/iDYz7nsC8RwqEqWxnrt83IgAKwIRR53jYt3IPdnTR6NmJkynC7DuWi4jeA
jYWTh14+ebM/W2nFAYCEoOrmxFGOeu6bP0FLUhLX1TIaMkoPtBxBLtYyASxGuO+D
WO53E8cpvX2qxCEGWCa+RGjiIcSBwqU/1Y7MnNRz7KgINfxKqMFisBr3TU1LiF5A
xb5euE/kHAMsJR5lURYrJ0G0k5bfNdGeu7mHjuBpLgQ48cXdrISIdq8CAwEAAaOC
AS4wggEqMAwGA1UdEwEB/wQCMAAwHQYDVR0OBBYEFG15s2k9GvZfUmJhzh8zc1j7
P+KlMFEGA1UdIwRKMEiAFG15s2k9GvZfUmJhzh8zc1j7P+KloSykKjAoMRIwEAYD
VQQKEwlOb2RlT1BDVUExEjAQBgNVBAMTCU5vZGVPUENVQYICEBUwSAYDVR0RBEEw
P4YndXJuOklQQVdTRFgwMjpOb2RlT1BDVUEtRGlzY292ZXJ5U2VydmVygglsb2Nh
bGhvc3SCCUlQQVdTRFgwMjAsBglghkgBhvhCAQ0EHxYdT3BlblNTTCBHZW5lcmF0
ZWQgQ2VydGlmaWNhdGUwDgYDVR0PAQH/BAQDAgL8MCAGA1UdJQEB/wQWMBQGCCsG
AQUFBwMBBggrBgEFBQcDAjANBgkqhkiG9w0BAQsFAAOCAYEAc5m5vzsJq44T0b4a
apXQxj3aMfv1jZQw3VHp8UUKPht33/e1U87YSWMUu4j++MG+9MEDIDfm6SqyCDNm
adAWnzjibblWeHnaC5P0sYciOEThfloDqXlf8g697HCzwnzlcC20JAczC7/twxoE
4WQ6zfNUD4CgMIJVOMeL0UB9+JGhBSiTrhoJlwpFTOF79hLnrINN3HwtIGPrzwNa
sv58SwCpb5uGrWOADGIA3Im0WFg6om2ejqGEViT8Fx1JOJO1lzJtkEmLOgmHqPC2
4/4OYR3GHa2yP32ooaOyvVTZWVfdDHMt8pDGABnPzQRhzO8E6APozYwk/HkPwE7W
V3HG5uAK7eAgnFWW6+R5EdtOBu0/kJUjMRMUSSNwyJhBOQoO4+F5xRuwrmx7OHYt
NOILggfQRuiNAi9zuLo0fgnXrvsbm6y3sNt1Lvc+DPPYTqN2Raa53Rg97kOWDi7m
BVD09dGPdTIUip94CzF4f8d+5lPiYvUQG6TYB7pIwBXIpybo
-----END CERTIFICATE-----
